###############################################################################
#
# IAR ELF Linker V7.30.1.7746/W32 for ARM                 23/Nov/2016  23:06:10
# Copyright 2007-2014 IAR Systems AB.
#
#    Output file  =  client.out
#    Map file     =  
#        C:/Users/subh6068/SimplicityStudio/v4_workspace/client/IAR ARM -
#        Default/client.map
#    Command line =  
#        ./version-debug/version-debug.o ./udp-cli/udp-cli.o
#        ./tftp-bootload-target/tftp-15-4.o
#        ./tftp-bootload-target/tftp-bootload.o
#        ./tftp-bootload-target/tftp-bootloader-15-4.o
#        ./tftp-bootload-target/tftp-bootloader-server.o
#        ./tftp-bootload-target/tftp-bootloader.o
#        ./tftp-bootload-target/tftp-server.o ./tftp-bootload-target/tftp.o
#        ./stack/thread-stack/ember-ip-configuration.o
#        ./slaac-client/slaac-client.o ./sim-eeprom1/EFR32/sim-eeprom.o
#        ./serial/EFR32/com.o ./serial/EFR32/ember-printf.o
#        ./serial/EFR32/serial.o ./sensor-control/sensor_control.o
#        ./scan-debug/scan-debug.o
#        ./network-management-cli/network-management-cli.o ./main/main.o
#        ./led/EFR32/led.o ./idle-sleep/idle-sleep.o ./icmp-debug/icmp-debug.o
#        ./icmp-cli/icmp-cli.o ./i2c-driver/EFR32/em_i2c.o
#        ./i2c-driver/EFR32/i2c-driver.o ./i2c-driver/EFR32/i2cspm.o
#        ./heartbeat/heartbeat.o ./hal-library/EFR32/assert-crash-handlers.o
#        ./hal-library/EFR32/crc.o ./hal-library/EFR32/cstartup-common.o
#        ./hal-library/EFR32/endian.o ./hal-library/EFR32/faults-v7m.o
#        ./hal-library/EFR32/isr-stubs.o ./hal-library/EFR32/mem-util.o
#        ./hal-library/EFR32/mfg-token.o ./hal-library/EFR32/micro-common.o
#        ./hal-library/EFR32/micro.o ./hal-library/EFR32/mpu.o
#        ./hal-library/EFR32/random.o ./hal-library/EFR32/sleep-efm32.o
#        ./hal-library/EFR32/token-def.o ./hal-library/EFR32/token.o
#        ./global-address-prefix-debug/global-address-prefix-debug.o
#        ./external-generated-files/bootloader-interface-app.o
#        ./external-generated-files/bootloader-interface.o ./emlib/em_adc.o
#        ./emlib/em_cmu.o ./emlib/em_emu.o ./emlib/em_gpio.o ./emlib/em_int.o
#        ./emlib/em_ldma.o ./emlib/em_leuart.o ./emlib/em_mpu.o
#        ./emlib/em_msc.o ./emlib/em_prs.o ./emlib/em_rmu.o ./emlib/em_rtcc.o
#        ./emlib/em_system.o ./emlib/em_timer.o ./emlib/em_usart.o
#        ./emlib/em_wdog.o ./emlib/system_efr32mg1p.o ./emdrv/dmadrv.o
#        ./emdrv/gpiointerrupt.o ./emdrv/rtcdriver.o ./emdrv/sleep.o
#        ./emdrv/spidrv.o ./emdrv/tempdrv.o ./emdrv/uartdrv.o ./emdrv/ustimer.o
#        ./diagnostic/EFR32/diagnostic.o ./dhcp-client/dhcp-client.o
#        ./debug-print/debug-print.o
#        ./command-interpreter2/command-interpreter2-error.o
#        ./command-interpreter2/command-interpreter2-util.o
#        ./command-interpreter2/command-interpreter2.o
#        ./coap-dispatch/coap-dispatch.o ./coap-cli/coap-cli.o ./cli/cli.o
#        ./buzzer/EFR32/buzzer.o ./button/EFR32/button.o
#        ./antenna-stub/antenna-stub.o
#        ./address-configuration-debug/address-configuration-debug.o
#        ./adc/EFR32/adc.o ./Si7021/EFR32/humidity-temperature-si7021.o
#        ./B2Bprotocol/B2Bprotocol.o ./client-implementation.o
#        ./thread-bookkeeping.o ./thread-callback-stubs.o ./thread-callbacks.o
#        ./thread-cli.o ./thread-coap-dispatch.o ./thread-events.o -o
#        client.out --config
#        C:/SiliconLabs/SimplicityStudio/v4/developer/stacks/thread/v2.0.0.0/platform/base/hal/micro/cortexm3/efm32/iar-cfg.icf
#        --config_def APP_BTL=1 --no_wrap_diagnostics
#        C:/SiliconLabs/SimplicityStudio/v4/developer/stacks/thread/v2.0.0.0//protocol/thread_2.0/build/mfglib-library-cortexm3-iar-efr32mg1p-efr32/mfglib-library.a
#        C:/SiliconLabs/SimplicityStudio/v4/developer/stacks/thread/v2.0.0.0//protocol/thread_2.0/build/thread-stack-cortexm3-iar-efr32mg1p-efr32/thread-stack.a
#        C:/SiliconLabs/SimplicityStudio/v4/developer/stacks/thread/v2.0.0.0//protocol/thread_2.0/build/dhcp-library-cortexm3-iar-efr32mg1p-efr32/dhcp-library.a
#        C:/SiliconLabs/SimplicityStudio/v4/developer/stacks/thread/v2.0.0.0//protocol/thread_2.0/build/sim-eeprom1-library-cortexm3-iar-efr32mg1p-efr32/sim-eeprom1-library.a
#        C:/SiliconLabs/SimplicityStudio/v4/developer/stacks/thread/v2.0.0.0//protocol/thread_2.0/build/mbedtls-library-cortexm3-iar-efr32mg1p-efr32/mbedtls-library.a
#        C:/SiliconLabs/SimplicityStudio/v4/developer/stacks/thread/v2.0.0.0//protocol/thread_2.0/build/hal-library-cortexm3-iar-efr32mg1p-efr32/hal-library.a
#        --entry halEntryPoint --map
#        "C:/Users/subh6068/SimplicityStudio/v4_workspace/client/IAR ARM -
#        Default/client.map" --log_file
#        "C:/Users/subh6068/SimplicityStudio/v4_workspace/client/IAR ARM -
#        Default/client.log" --log initialization,modules,sections,veneers
#        --diag_suppress=Lp012 --redirect _Printf=_PrintfSmall --redirect
#        _Scanf=_ScanfFull
#
###############################################################################

*******************************************************************************
*** RUNTIME MODEL ATTRIBUTES
***

CppFlavor       = *
__SystemLibrary = DLib


*******************************************************************************
*** PLACEMENT SUMMARY
***

"BAT": place at 0x00000000 { section BAT };
"HEADERS":
       place at start of [0x00004000-0x000040ff] { block HEADER_block };
"APP ro":
       place at start of [0x00004100-0x0003ffff] { block APPRO_block };
"NVM&SIMEE":
       place at end of [0x00004100-0x0003ffff] {
          zi section NVM, zi section SIMEE, zi section PSSTORE,
          zi section INTERNAL_STORAGE };
"DEBUGCHAN":
       place at start of [0x20007ff0-0x20007fff] { rw section DEBUG_CHANNEL };
"APP rw":
       place at end of [0x20000000-0x20007fef] { block APPRW_block };
"Heap":
       place at start of [0x20000000-0x20007fef] { overlay EMHEAP_overlay };
"Guard":
       place in [from 0x20000000 to 0x20007fef] { rw section GUARD_REGION };

  Section                 Kind        Address     Size  Object
  -------                 ----        -------     ----  ------
"BAT":                                            0x54
  BAT                     uninit   0x00000000     0x54  cstartup-common.o [20]
                                 - 0x00000054     0x54

"HEADERS":                                        0xac
  HEADER_block                     0x00004000     0xac  <Block>
    AAT                   const    0x00004000     0xac  cstartup-common.o [20]
                                 - 0x000040ac     0xac

"APP ro":                                      0x31d80
  APPRO_block                      0x00004100  0x31d80  <Block>
    .intvec               const    0x00004100     0xe0  cstartup-common.o [20]
    .textrw_init                   0x000041e0    0x200  <Block>
      Initializer bytes   ro data  0x000041e0    0x200  <for .textrw-1>
    .text                          0x000043e0  0x2ea38  <Block>
      .text               ro code  0x000043e0    0x200  xdtento.o [42]
      .text               ro code  0x000045e0     0x42  xdnorm.o [42]
      .text               ro code  0x00004622      0xa  xsprout.o [40]
      .text               ro code  0x0000462c    0x1a2  DblMul.o [42]
      .text               ro code  0x000047ce     0x1e  xsscin.o [40]
      .text               ro code  0x000047ec    0x114  xdscale.o [42]
      .text               ro code  0x00004900     0x20  DblCmpEq.o [42]
      .text               ro code  0x00004920     0x56  xdunscal.o [42]
      .text               ro code  0x00004978    0x246  DblDiv.o [42]
      .text               ro code  0x00004bc0      0xc  errno.o [40]
      .text               ro code  0x00004bcc      0x2  xtls.o [40]
      .text               ro code  0x00004bd0     0xa8  version-debug.o [37]
      .text               ro code  0x00004c78    0x158  debug-print.o [13]
      .text               ro code  0x00004dd0    0x2dc  ember-printf.o [31]
      .text               ro code  0x000050ac    0x5ec  ip-address.o [46]
      .text               ro code  0x00005698     0xd4  serial.o [31]
      .text               ro code  0x0000576c    0x8f0  com.o [31]
      .text               ro code  0x0000605c     0xf6  mem-util.o [20]
      .text               ro code  0x00006154    0x1d8  byte-utilities.o [46]
      .text               ro code  0x0000632c    0xbc0  ip-stack.o [46]
      .text               ro code  0x00006eec    0x546  global-prefix.o [46]
      .text               ro code  0x00007434      0x6  ABImemclr4.o [44]
      .text               ro code  0x0000743a     0x16  strnlen.o [40]
      .text               ro code  0x00007450     0x18  strrchr.o [40]
      .text               ro code  0x00007468     0x76  ABImemcpy_unaligned.o [44]
      .text               ro code  0x000074e0    0x13a  em_usart.o [17]
      .text               ro code  0x0000761c     0x2a  em_leuart.o [17]
      .text               ro code  0x00007648   0x1024  uartdrv.o [16]
      .text               ro code  0x0000866c    0x1e2  debug-jtag.o [46]
      .text               ro code  0x00008850    0x14c  em_gpio.o [17]
      .text               ro code  0x0000899c    0x29c  debug.o [46]
      .text               ro code  0x00008c38     0x66  ABImemset.o [44]
      .text               ro code  0x00008ca0    0x1e8  assert-crash-handlers.o [20]
      .text               ro code  0x00008e88    0xc74  buffer-management.o [46]
      .text               ro code  0x00009afc    0x3d0  mac-arbiter.o [46]
      .text               ro code  0x00009ecc    0x57c  mac-indirect.o [46]
      .text               ro code  0x0000a448    0x268  retry.o [46]
      .text               ro code  0x0000a6b0    0x81c  fragment.o [46]
      .text               ro code  0x0000aecc    0x350  udp.o [46]
      .text               ro code  0x0000b21c      0xe  wakeup-stubs.o [46]
      .text               ro code  0x0000b22c    0x21c  main.o [27]
      .text               ro code  0x0000b448     0xc8  dhcp-address-table.o [39]
      .text               ro code  0x0000b510    0x35c  event-queue.o [46]
      .text               ro code  0x0000b86c    0xb88  coap.o [46]
      .text               ro code  0x0000c3f4    0x2b8  jpake-ecc-mbedtls.o [43]
      .text               ro code  0x0000c6ac     0xc4  mark-list.o [46]
      .text               ro code  0x0000c770    0x604  dtls-join.o [46]
      .text               ro code  0x0000cd74    0x230  mac.o [46]
      .text               ro code  0x0000cfa4    0x81c  rip.o [46]
      .text               ro code  0x0000d7c0   0x211c  mle.o [46]
      .text               ro code  0x0000f8dc    0x484  distributed-key-management.o [46]
      .text               ro code  0x0000fd60    0x48c  802-15-4-ccm.o [46]
      .text               ro code  0x000101ec     0x80  unicast-table.o [46]
      .text               ro code  0x0001026c    0x7d8  child-data.o [46]
      .text               ro code  0x00010a44    0x280  multicast.o [46]
      .text               ro code  0x00010cc4    0x5e4  local-server-data.o [46]
      .text               ro code  0x000112a8   0x1870  join.o [46]
      .text               ro code  0x00012b18    0xa28  phy-common.o [46]
      .text               ro code  0x00013540     0x12  phy-util.o [46]
      .text               ro code  0x00013554     0x4c  eui64.o [46]
      .text               ro code  0x000135a0    0x3d8  address-cache.o [46]
      .text               ro code  0x00013978   0x1d68  commission.o [46]
      .text               ro code  0x000156e0    0xef8  commission-dataset.o [46]
      .text               ro code  0x000165d8   0x1000  network-data.o [46]
      .text               ro code  0x000175d8    0x134  token.o [20]
      .text               ro code  0x0001770c    0x1a4  event-control.o [46]
      .text               ro code  0x000178b0     0xc0  cstartup-common.o [20]
      .text               ro code  0x00017970    0x304  buffer-queue.o [46]
      .text               ro code  0x00017c74    0x150  mac-efr32.o [46]
      .text               ro code  0x00017dc4    0x25c  ip-mac-receive.o [46]
      .text               ro code  0x00018020   0x10e8  dispatch.o [46]
      .text               ro code  0x00019108    0x12c  phy.o [46]
      .text               ro code  0x00019234     0x4c  thread-bookkeeping.o [1]
      .text               ro code  0x00019280     0x78  global-address-prefix-debug.o [19]
      .text               ro code  0x000192f8    0xe0c  rip-neighbor.o [46]
      .text               ro code  0x0001a104    0xa24  client-implementation.o [1]
      .text               ro code  0x0001ab28    0x3b4  micro.o [20]
      .text               ro code  0x0001aedc     0x58  address-configuration-debug.o [5]
      .text               ro code  0x0001af34     0xd4  slaac-client.o [33]
      .text               ro code  0x0001b008     0xd0  dhcp-client.o [14]
      .text               ro code  0x0001b0d8    0x13a  context-table.o [46]
      .text               ro code  0x0001b214     0x32  ABImemset48.o [44]
      .text               ro code  0x0001b248    0x7c0  em_cmu.o [17]
      .text               ro code  0x0001ba08    0x3d0  dmadrv.o [16]
      .text               ro code  0x0001bdd8     0xc8  gpiointerrupt.o [16]
      .text               ro code  0x0001bea0     0x2e  register-access.o [41]
      .text               ro code  0x0001bed0     0xdc  system-timer.o [41]
      .text               ro code  0x0001bfac     0x24  crc.o [20]
      .text               ro code  0x0001bfd0    0x11c  micro-common.o [20]
      .text               ro code  0x0001c0ec    0x190  micro-internal.o [41]
      .text               ro code  0x0001c27c     0x42  strcmp_unaligned.o [44]
      .text               ro code  0x0001c2c0    0x110  thread-callback-stubs.o [1]
      .text               ro code  0x0001c3d0    0x218  jit.o [46]
      .text               ro code  0x0001c5e8    0x28c  command.o [46]
      .text               ro code  0x0001c874    0x4a4  scan.o [46]
      .text               ro code  0x0001cd18     0x48  random.o [20]
      .text               ro code  0x0001cd60     0x48  mac-header-util.o [46]
      .text               ro code  0x0001cda8    0x384  ip-packet-header.o [46]
      .text               ro code  0x0001d12c     0xa4  child-table.o [46]
      .text               ro code  0x0001d1d0    0x29c  child-aging.o [46]
      .text               ro code  0x0001d46c    0xcac  6lowpan-header.o [46]
      .text               ro code  0x0001e118    0x310  tls-record-util.o [46]
      .text               ro code  0x0001e428    0x280  connection.o [46]
      .text               ro code  0x0001e6a8    0x4dc  dtls.o [46]
      .text               ro code  0x0001eb84     0x4e  udp-simple.o [46]
      .text               ro code  0x0001ebd4    0x9a4  dhcp.o [39]
      .text               ro code  0x0001f578    0x3e8  coap-stack.o [46]
      .text               ro code  0x0001f960    0x8c4  diagnostic.o [15]
      .text               ro code  0x00020224    0x228  sensor_control.o [30]
      .text               ro code  0x0002044c     0x62  memcmp_unaligned.o [44]
      .text               ro code  0x000204b0    0x9d4  ecjpake.o [43]
      .text               ro code  0x00020e84    0x124  buffer-malloc.o [46]
      .text               ro code  0x00020fa8   0x10c4  tls-handshake.o [46]
      .text               ro code  0x0002206c    0x3a8  transport-header.o [46]
      .text               ro code  0x00022414    0x408  sha256.o [46]
      .text               ro code  0x0002281c    0x1ec  thread-key-stretch.o [46]
      .text               ro code  0x00022a08    0x918  ip-mac-header.o [46]
      .text               ro code  0x00023320    0x37c  network-fragmentation.o [46]
      .text               ro code  0x0002369c      0x6  ABImemclr.o [44]
      .text               ro code  0x000236a4    0x5e8  address-management.o [46]
      .text               ro code  0x00023c8c     0xd4  aes.o [46]
      .text               ro code  0x00023d60    0x224  scan-debug.o [29]
      .text               ro code  0x00023f84    0x25c  router-selection.o [46]
      .text               ro code  0x000241e0    0xa68  ieee802154_phy.o [46]
      .text               ro code  0x00024c48    0x7dc  radio.o [46]
      .text               ro code  0x00025424     0x1e  micro-common-internal.o [41]
      .text               ro code  0x00025444     0x68  ieee802154_filtering.o [46]
      .text               ro code  0x000254ac    0x110  pti.o [46]
      .text               ro code  0x000255bc    0x1e4  mfg-token.o [20]
      .text               ro code  0x000257a0     0x36  strlen.o [44]
      .text               ro code  0x000257d6     0x2a  strncmp.o [40]
      .text               ro code  0x00025800    0x43c  coap-diagnostic-stack.o [46]
      .text               ro code  0x00025c3c     0x58  memchr.o [44]
      .text               ro code  0x00025c94    0x198  sim-eeprom.o [32]
      .text               ro code  0x00025e2c    0xb2c  sim-eeprom-internal.o [45]
      .text               ro code  0x00026958     0xc8  em_rmu.o [17]
      .text               ro code  0x00026a20      0x4  antenna-stub.o [6]
      .text               ro code  0x00026a24     0xd4  association.o [46]
      .text               ro code  0x00026af8    0x3b8  ip-header.o [46]
      .text               ro code  0x00026eb0     0xf6  icmp.o [46]
      .text               ro code  0x00026fa6      0xe  tcp-stub.o [46]
      .text               ro code  0x00026fb4    0x104  icmp-debug.o [24]
      .text               ro code  0x000270b8    0x14c  rf_rand.o [46]
      .text               ro code  0x00027204     0x50  tempcal.o [46]
      .text               ro code  0x00027254    0x690  pa.o [46]
      .text               ro code  0x000278e4    0x384  command-interpreter2-util.o [12]
      .text               ro code  0x00027c68     0x14  tftp-bootload.o [35]
      .text               ro code  0x00027c7c     0x30  cli.o [9]
      .text               ro code  0x00027cac     0x20  heartbeat.o [21]
      .text               ro code  0x00027ccc     0xa8  idle-sleep.o [25]
      .text               ro code  0x00027d74    0x2f4  tempdrv.o [16]
      .text               ro code  0x00028068    0x4b0  B2Bprotocol.o [2]
      .text               ro code  0x00028518    0x304  tftp-server.o [35]
      .text               ro code  0x0002881c    0x324  tftp-bootloader-server.o [35]
      .text               ro code  0x00028b40     0xa8  system_efr32mg1p.o [17]
      .text               ro code  0x00028be8     0x6c  led.o [26]
      .text               ro code  0x00028c54    0x156  button.o [7]
      .text               ro code  0x00028dac    0x6b4  em_emu.o [17]
      .text               ro code  0x00029460    0x54c  rtcdriver.o [16]
      .text               ro code  0x000299ac    0x190  sleep-efm32.o [20]
      .text               ro code  0x00029b3c    0x214  dhcp-client.o [39]
      .text               ro code  0x00029d50    0x16c  em_ldma.o [17]
      .text               ro code  0x00029ebc    0x1a4  ustimer.o [16]
      .text               ro code  0x0002a060     0x18  em_wdog.o [17]
      .text               ro code  0x0002a078     0x8a  mpu.o [20]
      .text               ro code  0x0002a104    0x504  tls-ccm-record.o [46]
      .text               ro code  0x0002a608     0x38  log.o [46]
      .text               ro code  0x0002a640     0xac  coap-dispatch.o [11]
      .text               ro code  0x0002a6ec     0x96  i2c-driver.o [22]
      .text               ro code  0x0002a784     0xcc  humidity-temperature-si7021.o [3]
      .text               ro code  0x0002a850   0x1680  ecp.o [43]
      .text               ro code  0x0002bed0   0x11b4  bignum.o [43]
      .text               ro code  0x0002d084     0x44  md.o [43]
      .text               ro code  0x0002d0c8    0x488  ecp_curves.o [43]
      .text               ro code  0x0002d550     0x90  tls-session-state.o [46]
      .text               ro code  0x0002d5e0     0x64  tls-jpake.o [46]
      .text               ro code  0x0002d644    0x2d8  tls-handshake-crypto.o [46]
      .text               ro code  0x0002d91c    0x15e  em_crypto.o [46]
      .text               ro code  0x0002da7c     0x20  ieee802154_MRFSKFECWhiteningModeSwitch.o [46]
      .text               ro code  0x0002da9c    0x2d0  synth.o [46]
      .text               ro code  0x0002dd6c     0x5e  ir_cal.o [46]
      .text               ro code  0x0002ddcc     0xa0  ieee802154_legacyphyconfig.o [46]
      .text               ro code  0x0002de6c     0x34  em_system.o [17]
      .text               ro code  0x0002dea0     0xc4  radio_cmu.o [46]
      .text               ro code  0x0002df64     0x88  rf_test.o [46]
      .text               ro code  0x0002dfec     0x2a  phy_utils.o [46]
      .text               ro code  0x0002e018    0x132  I64DivMod.o [44]
      Veneer              ro code  0x0002e14c      0x8  - Linker created -
      Veneer              ro code  0x0002e154      0x8  - Linker created -
      Veneer              ro code  0x0002e15c      0x8  - Linker created -
      .text               ro code  0x0002e164     0xc8  flash.o [41]
      .text               ro code  0x0002e22c    0x330  command-interpreter2.o [12]
      .text               ro code  0x0002e55c     0x34  sprintf.o [40]
      .text               ro code  0x0002e590     0x24  sscanf.o [40]
      .text               ro code  0x0002e5b4     0x44  strcpy_unaligned.o [44]
      .text               ro code  0x0002e5f8    0x110  tftp.o [35]
      .text               ro code  0x0002e708     0x4a  tftp-15-4.o [35]
      .text               ro code  0x0002e754    0x19c  xstoul.o [40]
      .text               ro code  0x0002e8f0    0x178  bootloader-interface-app.o [18]
      .text               ro code  0x0002ea68     0xdc  tftp-bootloader.o [35]
      .text               ro code  0x0002eb44     0x70  em_rtcc.o [17]
      .text               ro code  0x0002ebb4     0xee  em_timer.o [17]
      .text               ro code  0x0002eca4     0x50  em_mpu.o [17]
      .text               ro code  0x0002ecf4     0xd8  i2cspm.o [22]
      .text               ro code  0x0002edcc    0x688  sl_ecp.o [43]
      .text               ro code  0x0002f454    0x194  protimer.o [46]
      .text               ro code  0x0002f5e8      0x2  I64DivZer.o [44]
      .text               ro code  0x0002f5ec     0x28  em_msc.o [17]
      .text               ro code  0x0002f614    0x2b4  command-interpreter2-error.o [12]
      .text               ro code  0x0002f8c8    0x4d8  xprintfsmall.o [40]
      .text               ro code  0x0002fda0    0xb7c  xscanffull.o [40]
      .text               ro code  0x0003091c     0xe0  rand.o [40]
      .text               ro code  0x000309fc    0x2d4  em_i2c.o [22]
      .text               ro code  0x00030cd0     0x16  strchr.o [44]
      .text               ro code  0x00030ce6     0xa2  xstoll.o [40]
      .text               ro code  0x00030d88    0x1b4  xstoull.o [40]
      .text               ro code  0x00030f3c    0x168  xstold.o [42]
      .text               ro code  0x000310a4     0x90  DblToFlt.o [42]
      .text               ro code  0x00031134    0x130  xstopfx.o [40]
      .text               ro code  0x00031264    0x1b4  xstoflt.o [40]
      .text               ro code  0x00031418     0x2c  I32ToDbl.o [42]
      .text               ro code  0x00031444     0xe8  DblAdd.o [42]
      .text               ro code  0x0003152c    0x200  xstoxflt.o [40]
      .text               ro code  0x0003172c    0x16c  DblSub.o [42]
      .text               ro code  0x00031898     0xc4  udp-cli.o [36]
      .text               ro code  0x0003195c     0x44  ember-ip-configuration.o [34]
      .text               ro code  0x000319a0    0x6b0  network-management-cli.o [28]
      .text               ro code  0x00032050    0x128  icmp-cli.o [23]
      .text               ro code  0x00032178     0xae  icmp-simple.o [46]
      .text               ro code  0x00032228      0x2  faults-v7m.o [20]
      .text               ro code  0x0003222c      0x2  faults-v7m.o [20]
      .text               ro code  0x00032230      0x2  faults-v7m.o [20]
      .text               ro code  0x00032234      0x2  faults-v7m.o [20]
      .text               ro code  0x00032238      0x2  faults-v7m.o [20]
      .text               ro code  0x0003223c      0x2  faults-v7m.o [20]
      .text               ro code  0x00032240      0x2  faults-v7m.o [20]
      .text               ro code  0x00032244     0x70  faults-v7m.o [20]
      .text               ro code  0x000322b4      0x4  isr-stubs.o [20]
      .text               ro code  0x000322b8    0x14c  em_adc.o [17]
      .text               ro code  0x00032404    0x1dc  coap-cli.o [10]
      .text               ro code  0x000325e0    0x108  adc.o [4]
      .text               ro code  0x000326e8    0x180  cstartup-iar.o [41]
      .text               ro code  0x00032868    0x244  dhcp-server.o [39]
      .text               ro code  0x00032aac    0x2c4  sl_sha256.o [43]
      .text               ro code  0x00032d70     0x22  fpinit_M.o [42]
      .text               ro code  0x00032d92     0x50  md_wrap.o [43]
      .text               ro code  0x00032de2     0x36  sha256.o [43]
    .rodata               const    0x00032f00    0xe4c  ieee802154_annotated.o [46]
    .rodata               const    0x00033d4c     0x30  version-debug.o [37]
    .rodata               const    0x00033d7c     0x10  ember-ip-configuration.o [34]
    .rodata               const    0x00033d8c     0x24  sim-eeprom.o [32]
    .rodata               const    0x00033db0    0x124  micro.o [20]
    .rodata               const    0x00033ed4    0x374  token-def.o [20]
    .rodata               const    0x00034248    0x4e8  diagnostic.o [15]
    .rodata               const    0x00034730     0x84  command-interpreter2-error.o [12]
    .rodata               const    0x000347b4    0x450  thread-cli.o [1]
    .rodata               const    0x00034c04     0x34  thread-coap-dispatch.o [1]
    .rodata               const    0x00034c38     0x18  thread-events.o [1]
    .rodata               const    0x00034c50     0x28  ip-stack.o [46]
    .rodata               const    0x00034c78     0x20  global-prefix.o [46]
    .rodata               const    0x00034c98     0x6c  commission.o [46]
    .rodata               const    0x00034d04     0x34  join.o [46]
    .rodata               const    0x00034d38     0x20  local-server-data.o [46]
    .rodata               const    0x00034d58     0x20  distributed-key-management.o [46]
    .rodata               const    0x00034d78     0x18  scan.o [46]
    .rodata               const    0x00034d90     0x30  ip-address.o [46]
    .rodata               const    0x00034dc0    0x2a8  coap.o [46]
    .rodata               const    0x00035068     0x10  address-cache.o [46]
    .rodata               const    0x00035078     0x10  rip-neighbor.o [46]
    .rodata               const    0x00035088     0x20  network-data.o [46]
    .rodata               const    0x000350a8     0x1c  multicast.o [46]
    .rodata               const    0x000350c4     0x1c  fragment.o [46]
    .rodata               const    0x000350e0     0x24  jit.o [46]
    .rodata               const    0x00035104     0x40  rip.o [46]
    .rodata               const    0x00035144     0x20  mac-indirect.o [46]
    .rodata               const    0x00035164     0x40  mle.o [46]
    .rodata               const    0x000351a4     0x34  child-aging.o [46]
    .rodata               const    0x000351d8     0x18  retry.o [46]
    .rodata               const    0x000351f0     0x5c  commission-dataset.o [46]
    .rodata               const    0x0003524c     0x18  association.o [46]
    .rodata               const    0x00035264     0x20  unicast-table.o [46]
    .rodata               const    0x00035284     0x1c  mac.o [46]
    .rodata               const    0x000352a0     0x64  network-fragmentation.o [46]
    .rodata               const    0x00035304     0x24  router-selection.o [46]
    .rodata               const    0x00035328     0x2c  dhcp.o [39]
    .rodata               const    0x00035354     0x24  connection.o [46]
    .rodata               const    0x00035378     0x10  ecjpake.o [43]
    .rodata               const    0x00035388     0x24  tls-test-credentials.o [46]
    .rodata               const    0x000353ac    0x26c  ieee802154_legacyphyconfig.o [46]
    .rodata               const    0x00035618    0x250  ieee802154_configurator_out.o [46]
    .rodata               const    0x00035868      0xc  ecp.o [43]
    .rodata               const    0x00035874     0x70  md_wrap.o [43]
    .rodata               const    0x000358e4      0x8  mfg-token.o [20]
    .rodata               const    0x000358ec      0x8  tls-ccm-record.o [46]
    .data_init                     0x000358f4    0x4fc  <Block>
      Initializer bytes   ro data  0x000358f4    0x4fc  <for .data-1> (used: 0x4f8)
    __DLIB_PERTHREAD_init
                                   0x00035df0     0x90  <Block>
      Initializer bytes   ro data  0x00035df0     0x90  <for DLIB_PERTHREAD_INITIALIZED_DATA-1>
                                 - 0x00035e80  0x31d80

"NVM&SIMEE":                                    0x2000
  SIMEE                            0x0003e000   0x2000  <Block>
    SIMEE                 uninit   0x0003e000   0x2000  sim-eeprom.o [32]
                                 - 0x00040000   0x2000

"Heap":                                         0x1780
  EMHEAP_overlay                   0x20000000   0x1770  <Overlay>
    part 1:
      EMHEAP                       0x20000000   0x1770  <Block>
        EMHEAP            uninit   0x20000000   0x1770  ember-ip-configuration.o [34]
    part 2:
      RESETINFO                    0x20000000     0x9c  <Block>
        RESETINFO         const    0x20000000      0x0  faults-v7m.o [20]
        RESETINFO         const    0x20000000      0x0  isr-stubs.o [20]
        RESETINFO         uninit   0x20000000     0x9c  cstartup-common.o [20]
                                 - 0x20001770   0x1770

"Guard":                                          0x20
  GUARD_REGION            uninit   0x20001780     0x20  cstartup-common.o [20]
                                 - 0x200017a0     0x20

"APP rw":                                       0x2f53
  APPRW_block                      0x20005098   0x2f53  <Block>
    ALIGN_CSTACK                   0x20005098    0xed8  <Block>
      CSTACK                       0x20005098    0xed8  <Block>
        CSTACK            const    0x20005098      0x0  faults-v7m.o [20]
        CSTACK            const    0x20005098      0x0  isr-stubs.o [20]
        CSTACK            uninit   0x20005098    0xed8  cstartup-common.o [20]
    .textrw                        0x20005f70    0x200  <Block>
      .textrw-1                    0x20005f70    0x200  <Init block>
        .textrw           inited   0x20005f70    0x200  em_msc.o [17]
    .data                          0x20006170    0x4f8  <Block>
      .data-1                      0x20006170    0x4f8  <Init block>
        .data             inited   0x20006170      0xa  tftp.o [35]
        .data             inited   0x2000617a      0x1  ember-ip-configuration.o [34]
        .data             inited   0x2000617c      0x4  ember-ip-configuration.o [34]
        .data             inited   0x20006180      0x4  ember-ip-configuration.o [34]
        .data             inited   0x20006184      0x4  ember-ip-configuration.o [34]
        .data             inited   0x20006188      0x4  ember-ip-configuration.o [34]
        .data             inited   0x2000618c      0x4  ember-ip-configuration.o [34]
        .data             inited   0x20006190      0x4  ember-ip-configuration.o [34]
        .data             inited   0x20006194      0x4  ember-ip-configuration.o [34]
        .data             inited   0x20006198      0x4  ember-ip-configuration.o [34]
        .data             inited   0x2000619c      0x1  ember-ip-configuration.o [34]
        .data             inited   0x2000619e      0x2  ember-ip-configuration.o [34]
        .data             inited   0x200061a0      0x4  ember-ip-configuration.o [34]
        .data             inited   0x200061a4      0x1  ember-ip-configuration.o [34]
        .data             inited   0x200061a5      0x1  ember-ip-configuration.o [34]
        .data             inited   0x200061a8     0x80  com.o [31]
        .data             inited   0x20006228     0x80  com.o [31]
        .data             inited   0x200062a8     0x5c  com.o [31]
        .data             inited   0x20006304     0x18  i2c-driver.o [22]
        .data             inited   0x2000631c     0x50  mpu.o [20]
        .data             inited   0x2000636c      0x4  random.o [20]
        .data             inited   0x20006370      0x4  em_cmu.o [17]
        .data             inited   0x20006374      0xc  system_efr32mg1p.o [17]
        .data             inited   0x20006380     0x28  rtcdriver.o [16]
        .data             inited   0x200063a8     0x20  tempdrv.o [16]
        .data             inited   0x200063c8     0x20  tempdrv.o [16]
        .data             inited   0x200063e8      0x4  debug-print.o [13]
        .data             inited   0x200063ec      0x2  transport-header.o [46]
        .data             inited   0x200063ee      0x2  dispatch.o [46]
        .data             inited   0x200063f0      0x2  dispatch.o [46]
        .data             inited   0x200063f4      0x4  buffer-management.o [46]
        .data             inited   0x200063f8      0x1  ip-stack.o [46]
        .data             inited   0x200063fc      0x8  ip-stack.o [46]
        .data             inited   0x20006404      0xc  ip-stack.o [46]
        .data             inited   0x20006410      0xc  global-prefix.o [46]
        .data             inited   0x2000641c      0xc  commission.o [46]
        .data             inited   0x20006428      0xc  commission.o [46]
        .data             inited   0x20006434      0xc  commission.o [46]
        .data             inited   0x20006440      0x4  join.o [46]
        .data             inited   0x20006444     0x20  join.o [46]
        .data             inited   0x20006464      0xc  local-server-data.o [46]
        .data             inited   0x20006470      0x8  dtls-join.o [46]
        .data             inited   0x20006478      0xc  distributed-key-management.o [46]
        .data             inited   0x20006484     0x10  scan.o [46]
        .data             inited   0x20006494      0xa  phy-common.o [46]
        .data             inited   0x2000649e      0x1  phy-common.o [46]
        .data             inited   0x2000649f      0x1  phy-common.o [46]
        .data             inited   0x200064a0      0x1  phy-common.o [46]
        .data             inited   0x200064a1      0x1  phy-common.o [46]
        .data             inited   0x200064a2      0x1  phy-common.o [46]
        .data             inited   0x200064a4      0x4  micro-internal.o [41]
        .data             inited   0x200064a8      0x1  pa.o [46]
        .data             inited   0x200064a9      0x1  phy.o [46]
        .data             inited   0x200064aa      0x2  phy.o [46]
        .data             inited   0x200064ac      0x1  phy.o [46]
        .data             inited   0x200064b0     0x20  ip-address.o [46]
        .data             inited   0x200064d0      0x4  coap.o [46]
        .data             inited   0x200064d4      0xc  address-cache.o [46]
        .data             inited   0x200064e0      0x1  rip-neighbor.o [46]
        .data             inited   0x200064e4      0x4  rip-neighbor.o [46]
        .data             inited   0x200064e8      0x8  6lowpan-header.o [46]
        .data             inited   0x200064f0      0x2  child-data.o [46]
        .data             inited   0x200064f4     0x10  network-data.o [46]
        .data             inited   0x20006504      0x1  multicast.o [46]
        .data             inited   0x20006508      0xc  multicast.o [46]
        .data             inited   0x20006514     0x10  fragment.o [46]
        .data             inited   0x20006524      0xc  jit.o [46]
        .data             inited   0x20006530     0x1c  rip.o [46]
        .data             inited   0x2000654c      0x1  mac-efr32.o [46]
        .data             inited   0x20006550      0xc  mac-indirect.o [46]
        .data             inited   0x2000655c      0x1  mac-arbiter.o [46]
        .data             inited   0x20006560     0x10  mle.o [46]
        .data             inited   0x20006570      0x4  mle.o [46]
        .data             inited   0x20006574      0xc  mle.o [46]
        .data             inited   0x20006580      0x8  child-aging.o [46]
        .data             inited   0x20006588     0x18  child-aging.o [46]
        .data             inited   0x200065a0      0xc  retry.o [46]
        .data             inited   0x200065ac      0x4  commission-dataset.o [46]
        .data             inited   0x200065b0      0xc  commission-dataset.o [46]
        .data             inited   0x200065bc      0xc  commission-dataset.o [46]
        .data             inited   0x200065c8      0xc  association.o [46]
        .data             inited   0x200065d4      0xc  unicast-table.o [46]
        .data             inited   0x200065e0      0xc  mac.o [46]
        .data             inited   0x200065ec      0x8  dhcp-address-table.o [39]
        .data             inited   0x200065f4      0x2  dtls.o [46]
        .data             inited   0x200065f6      0x1  command.o [46]
        .data             inited   0x200065f8     0x20  network-fragmentation.o [46]
        .data             inited   0x20006618      0xc  network-fragmentation.o [46]
        .data             inited   0x20006624     0x14  router-selection.o [46]
        .data             inited   0x20006638      0x1  dhcp.o [39]
        .data             inited   0x2000663c      0xc  dhcp.o [39]
        .data             inited   0x20006648      0xc  connection.o [46]
        .data             inited   0x20006654      0x2  ieee802154_phy.o [46]
        .data             inited   0x20006658      0x4  synth.o [46]
        .data             inited   0x2000665c      0x1  ip-mac-header.o [46]
        .data             inited   0x2000665d      0x1  ip-mac-header.o [46]
        .data             inited   0x20006660      0x4  tls-test-credentials.o [46]
        .data             inited   0x20006664      0x4  ecp_curves.o [43]
    DLIB_PERTHREAD_INITIALIZED_DATA
                                   0x20006668     0x90  <Block>
      DLIB_PERTHREAD_INITIALIZED_DATA-1
                                   0x20006668     0x90  <Init block>
        __DLIB_PERTHREAD  inited   0x20006668     0x8c  rand.o [40]
        __DLIB_PERTHREAD  inited   0x200066f4      0x4  errno.o [40]
    DLIB_PERTHREAD_ZERO_DATA
                                   0x200066f8      0x0  <Block>
    .bss                           0x200066f8   0x18f3  <Block>
      .bss                uninit   0x200066f8     0xa0  rtcdriver.o [16]
      .bss                uninit   0x20006798     0x14  tftp-bootloader-server.o [35]
      .bss                uninit   0x200067ac     0x10  tftp.o [35]
      .bss                uninit   0x200067bc     0x20  ember-ip-configuration.o [34]
      .bss                uninit   0x200067dc     0x24  ember-ip-configuration.o [34]
      .bss                uninit   0x20006800     0x88  ember-ip-configuration.o [34]
      .bss                uninit   0x20006888     0x40  ember-ip-configuration.o [34]
      .bss                uninit   0x200068c8     0x40  ember-ip-configuration.o [34]
      .bss                uninit   0x20006908     0x40  ember-ip-configuration.o [34]
      .bss                uninit   0x20006948     0x10  ember-ip-configuration.o [34]
      .bss                uninit   0x20006958     0x20  ember-ip-configuration.o [34]
      .bss                uninit   0x20006978     0x24  ember-ip-configuration.o [34]
      .bss                uninit   0x2000699c     0x20  sim-eeprom.o [32]
      .bss                uninit   0x200069bc     0x48  com.o [31]
      .bss                uninit   0x20006a04     0x88  com.o [31]
      .bss                uninit   0x20006a8c     0x88  com.o [31]
      .bss                uninit   0x20006b14     0x88  com.o [31]
      .bss                uninit   0x20006b9c     0x9c  com.o [31]
      .bss                uninit   0x20006c38     0x70  com.o [31]
      .bss                uninit   0x20006ca8      0x4  com.o [31]
      .bss                uninit   0x20006cac     0x18  main.o [27]
      .bss                uninit   0x20006cc4      0xc  em_i2c.o [22]
      .bss                uninit   0x20006cd0      0x4  heartbeat.o [21]
      .bss                uninit   0x20006cd4      0xa  cstartup-common.o [20]
      .bss                uninit   0x20006cde      0x2  tftp-bootloader.o [35]
      .bss                uninit   0x20006ce0      0xc  micro.o [20]
      .bss                uninit   0x20006cec      0x4  sleep-efm32.o [20]
      .bss                uninit   0x20006cf0      0x4  sleep-efm32.o [20]
      .bss                uninit   0x20006cf4     0x18  bootloader-interface-app.o [18]
      .bss                uninit   0x20006d0c    0x1e0  bootloader-interface-app.o [18]
      .bss                uninit   0x20006eec      0x8  em_emu.o [17]
      .bss                uninit   0x20006ef4      0x4  em_emu.o [17]
      .bss                uninit   0x20006ef8      0x4  em_int.o [17]
      .bss                uninit   0x20006efc      0x4  system_efr32mg1p.o [17]
      .bss                uninit   0x20006f00     0x80  dmadrv.o [16]
      .bss                uninit   0x20006f80    0x100  dmadrv.o [16]
      .bss                uninit   0x20007080     0x40  gpiointerrupt.o [16]
      .bss                uninit   0x200070c0     0x48  tempdrv.o [16]
      .bss                uninit   0x20007108     0x30  tempdrv.o [16]
      .bss                uninit   0x20007138     0x14  uartdrv.o [16]
      .bss                uninit   0x2000714c      0xc  ustimer.o [16]
      .bss                uninit   0x20007158     0x94  command-interpreter2-util.o [12]
      .bss                uninit   0x200071ec     0x1c  adc.o [4]
      .bss                uninit   0x20007208     0x14  humidity-temperature-si7021.o [3]
      .bss                uninit   0x2000721c    0x1f4  B2Bprotocol.o [2]
      .bss                uninit   0x20007410     0x1c  client-implementation.o [1]
      .bss                uninit   0x2000742c     0x14  client-implementation.o [1]
      .bss                uninit   0x20007440      0x8  dispatch.o [46]
      .bss                uninit   0x20007448      0x4  dispatch.o [46]
      .bss                uninit   0x2000744c      0x8  dispatch.o [46]
      .bss                uninit   0x20007454     0x2c  buffer-management.o [46]
      .bss                uninit   0x20007480      0xc  log.o [46]
      .bss                uninit   0x2000748c     0x18  ip-stack.o [46]
      .bss                uninit   0x200074a4      0x4  ip-stack.o [46]
      .bss                uninit   0x200074a8     0x14  global-prefix.o [46]
      .bss                uninit   0x200074bc      0x4  sim-eeprom-internal.o [45]
      .bss                uninit   0x200074c0      0xc  debug.o [46]
      .bss                uninit   0x200074cc      0x8  debug.o [46]
      .bss                uninit   0x200074d4      0x8  system-timer.o [41]
      .bss                uninit   0x200074dc     0x30  commission.o [46]
      .bss                uninit   0x2000750c     0x28  commission.o [46]
      .bss                uninit   0x20007534     0x50  join.o [46]
      .bss                uninit   0x20007584     0x48  join.o [46]
      .bss                uninit   0x200075cc     0x3c  join.o [46]
      .bss                uninit   0x20007608     0x18  dtls-join.o [46]
      .bss                uninit   0x20007620     0x54  distributed-key-management.o [46]
      .bss                uninit   0x20007674     0x20  scan.o [46]
      .bss                uninit   0x20007694     0x44  phy-common.o [46]
      .bss                uninit   0x200076d8     0x90  phy-common.o [46]
      .bss                uninit   0x20007768      0xc  pa.o [46]
      .bss                uninit   0x20007774      0x8  pti.o [46]
      .bss                uninit   0x2000777c      0x8  ip-address.o [46]
      .bss                uninit   0x20007784      0x8  coap.o [46]
      .bss                uninit   0x2000778c      0xc  rip-neighbor.o [46]
      .bss                uninit   0x20007798      0xe  network-data.o [46]
      .bss                uninit   0x200077a6      0x2  dispatch.o [46]
      .bss                uninit   0x200077a8      0x8  rip.o [46]
      .bss                uninit   0x200077b0    0x280  rip.o [46]
      .bss                uninit   0x20007a30      0x8  mac-efr32.o [46]
      .bss                uninit   0x20007a38      0x8  mac-indirect.o [46]
      .bss                uninit   0x20007a40      0xc  mle.o [46]
      .bss                uninit   0x20007a4c     0x10  mle.o [46]
      .bss                uninit   0x20007a5c      0x4  child-aging.o [46]
      .bss                uninit   0x20007a60     0x40  retry.o [46]
      .bss                uninit   0x20007aa0      0x8  retry.o [46]
      .bss                uninit   0x20007aa8     0x68  commission-dataset.o [46]
      .bss                uninit   0x20007b10      0x8  commission-dataset.o [46]
      .bss                uninit   0x20007b18      0x8  commission-dataset.o [46]
      .bss                uninit   0x20007b20     0x38  association.o [46]
      .bss                uninit   0x20007b58     0x14  unicast-table.o [46]
      .bss                uninit   0x20007b6c     0x10  ip-mac-receive.o [46]
      .bss                uninit   0x20007b7c      0x8  jpake-ecc-mbedtls.o [43]
      .bss                uninit   0x20007b84      0xc  eui64.o [46]
      .bss                uninit   0x20007b90      0x8  eui64.o [46]
      .bss                uninit   0x20007b98      0x4  802-15-4-ccm.o [46]
      .bss                uninit   0x20007b9c      0xc  network-fragmentation.o [46]
      .bss                uninit   0x20007ba8     0x14  network-fragmentation.o [46]
      .bss                uninit   0x20007bbc      0x8  dhcp.o [39]
      .bss                uninit   0x20007bc4      0x4  dhcp.o [39]
      .bss                uninit   0x20007bc8      0x4  connection.o [46]
      .bss                uninit   0x20007bcc      0xe  ieee802154_phy.o [46]
      .bss                uninit   0x20007bda      0x2  mark-list.o [46]
      .bss                uninit   0x20007bdc      0x4  ieee802154_phy.o [46]
      .bss                uninit   0x20007be0     0x3c  ieee802154_phy.o [46]
      .bss                uninit   0x20007c1c     0x10  ieee802154_phy.o [46]
      .bss                uninit   0x20007c2c      0x8  radio.o [46]
      .bss                uninit   0x20007c34     0x10  radio.o [46]
      .bss                uninit   0x20007c44     0x40  radio.o [46]
      .bss                uninit   0x20007c84    0x240  radio.o [46]
      .bss                uninit   0x20007ec4     0x24  rf_test.o [46]
      .bss                uninit   0x20007ee8     0x10  synth.o [46]
      .bss                uninit   0x20007ef8      0x8  buffer-malloc.o [46]
      .bss                uninit   0x20007f00      0x8  em_emu.o [17]
      .bss                uninit   0x20007f08      0x4  sim-eeprom-internal.o [45]
      .bss                uninit   0x20007f0c      0x4  local-server-data.o [46]
      .bss                uninit   0x20007f10      0x2  child-data.o [46]
      .bss                uninit   0x20007f12      0x4  udp.o [46]
      .bss                uninit   0x20007f16      0x6  multicast.o [46]
      .bss                uninit   0x20007f1c      0x4  fragment.o [46]
      .bss                uninit   0x20007f20      0x4  fragment.o [46]
      .bss                uninit   0x20007f24      0x4  jit.o [46]
      .bss                uninit   0x20007f28      0x4  mac-indirect.o [46]
      .bss                uninit   0x20007f2c      0xe  mac-arbiter.o [46]
      .bss                uninit   0x20007f3a     0x80  mac.o [46]
      .bss                uninit   0x20007fba      0x2  network-fragmentation.o [46]
      .bss                uninit   0x20007fbc      0x2  radio.o [46]
      .bss                uninit   0x20007fbe      0x4  tls-session-state.o [46]
      .bss                uninit   0x20007fc2      0x1  sensor_control.o [30]
      .bss                uninit   0x20007fc3      0x2  token.o [20]
      .bss                uninit   0x20007fc5      0x1  dmadrv.o [16]
      .bss                uninit   0x20007fc6      0x2  tempdrv.o [16]
      .bss                uninit   0x20007fc8      0x2  button.o [7]
      .bss                uninit   0x20007fca      0x1  thread-callback-stubs.o [1]
      .bss                uninit   0x20007fcb      0x2  event-control.o [46]
      .bss                uninit   0x20007fcd      0x1  global-prefix.o [46]
      .bss                uninit   0x20007fce      0x1  debug.o [46]
      .bss                uninit   0x20007fcf      0x1  debug-jtag.o [46]
      .bss                uninit   0x20007fd0      0x1  debug-jtag.o [46]
      .bss                uninit   0x20007fd1      0x1  join.o [46]
      .bss                uninit   0x20007fd2      0x1  join.o [46]
      .bss                uninit   0x20007fd3      0x1  phy-common.o [46]
      .bss                uninit   0x20007fd4      0x1  phy-common.o [46]
      .bss                uninit   0x20007fd5      0x1  phy-common.o [46]
      .bss                uninit   0x20007fd6      0x2  phy.o [46]
      .bss                uninit   0x20007fd8      0x1  dhcp-client.o [39]
      .bss                uninit   0x20007fd9      0x3  rip.o [46]
      .bss                uninit   0x20007fdc      0x1  mac-efr32.o [46]
      .bss                uninit   0x20007fdd      0x1  mac-arbiter.o [46]
      .bss                uninit   0x20007fde      0x1  mac-arbiter.o [46]
      .bss                uninit   0x20007fdf      0x2  mle.o [46]
      .bss                uninit   0x20007fe1      0x1  mle.o [46]
      .bss                uninit   0x20007fe2      0x2  mac.o [46]
      .bss                uninit   0x20007fe4      0x1  address-management.o [46]
      .bss                uninit   0x20007fe5      0x1  command.o [46]
      .bss                uninit   0x20007fe6      0x2  command.o [46]
      .bss                uninit   0x20007fe8      0x2  router-selection.o [46]
      .bss                uninit   0x20007fea      0x1  dhcp.o [39]
                                 - 0x20007feb   0x2f53

"DEBUGCHAN":                                      0x10
  DEBUG_CHANNEL                    0x20007ff0     0x10  <Block>
    DEBUG_CHANNEL         uninit   0x20007ff0     0x10  debug-jtag.o [46]
                                 - 0x20008000     0x10

Absolute sections:                                0x94
  .noinit                 uninit   0x21000f6c     0x18  radio.o [46]
  .noinit                 uninit   0x21000f84     0x18  radio.o [46]
  .noinit                 uninit   0x21000f9c     0x24  radio.o [46]
  .noinit                 uninit   0x21000fc0      0xc  radio.o [46]
  .noinit                 uninit   0x21000fcc     0x28  radio.o [46]
  .noinit                 uninit   0x21000ff4      0xc  radio.o [46]
                                 - 0x21001000     0x94



*******************************************************************************
*** MODULE SUMMARY
***

    Module                                    ro code  rw code  ro data  rw data  rw data
                                                                                   (abs)
    ------                                    -------  -------  -------  -------  -------
C:\Users\subh6068\SimplicityStudio\v4_workspace\client\IAR ARM - Default: [1]
    client-implementation.o                     2 596                         48
    thread-bookkeeping.o                           76
    thread-callback-stubs.o                       272                          1
    thread-cli.o                                                  1 104
    thread-coap-dispatch.o                                           52
    thread-events.o                                                  24
    -------------------------------------------------------------------------------------
    Total:                                      2 944             1 180       49

C:\Users\subh6068\SimplicityStudio\v4_workspace\client\IAR ARM - Default\B2Bprotocol: [2]
    B2Bprotocol.o                               1 200                        500
    -------------------------------------------------------------------------------------
    Total:                                      1 200                        500

C:\Users\subh6068\SimplicityStudio\v4_workspace\client\IAR ARM - Default\Si7021\EFR32: [3]
    humidity-temperature-si7021.o                 204                         20
    -------------------------------------------------------------------------------------
    Total:                                        204                         20

C:\Users\subh6068\SimplicityStudio\v4_workspace\client\IAR ARM - Default\adc\EFR32: [4]
    adc.o                                         264                         28
    -------------------------------------------------------------------------------------
    Total:                                        264                         28

C:\Users\subh6068\SimplicityStudio\v4_workspace\client\IAR ARM - Default\address-configuration-debug: [5]
    address-configuration-debug.o                  88
    -------------------------------------------------------------------------------------
    Total:                                         88

C:\Users\subh6068\SimplicityStudio\v4_workspace\client\IAR ARM - Default\antenna-stub: [6]
    antenna-stub.o                                  4
    -------------------------------------------------------------------------------------
    Total:                                          4

C:\Users\subh6068\SimplicityStudio\v4_workspace\client\IAR ARM - Default\button\EFR32: [7]
    button.o                                      342                          2
    -------------------------------------------------------------------------------------
    Total:                                        342                          2

C:\Users\subh6068\SimplicityStudio\v4_workspace\client\IAR ARM - Default\buzzer\EFR32: [8]
    -------------------------------------------------------------------------------------
    Total:

C:\Users\subh6068\SimplicityStudio\v4_workspace\client\IAR ARM - Default\cli: [9]
    cli.o                                          48
    -------------------------------------------------------------------------------------
    Total:                                         48

C:\Users\subh6068\SimplicityStudio\v4_workspace\client\IAR ARM - Default\coap-cli: [10]
    coap-cli.o                                    476
    -------------------------------------------------------------------------------------
    Total:                                        476

C:\Users\subh6068\SimplicityStudio\v4_workspace\client\IAR ARM - Default\coap-dispatch: [11]
    coap-dispatch.o                               172
    -------------------------------------------------------------------------------------
    Total:                                        172

C:\Users\subh6068\SimplicityStudio\v4_workspace\client\IAR ARM - Default\command-interpreter2: [12]
    command-interpreter2-error.o                  692               132
    command-interpreter2-util.o                   900                        148
    command-interpreter2.o                        816
    -------------------------------------------------------------------------------------
    Total:                                      2 408               132      148

C:\Users\subh6068\SimplicityStudio\v4_workspace\client\IAR ARM - Default\debug-print: [13]
    debug-print.o                                 344                 4        4
    -------------------------------------------------------------------------------------
    Total:                                        344                 4        4

C:\Users\subh6068\SimplicityStudio\v4_workspace\client\IAR ARM - Default\dhcp-client: [14]
    dhcp-client.o                                 208
    -------------------------------------------------------------------------------------
    Total:                                        208

C:\Users\subh6068\SimplicityStudio\v4_workspace\client\IAR ARM - Default\diagnostic\EFR32: [15]
    diagnostic.o                                2 244             1 256
    -------------------------------------------------------------------------------------
    Total:                                      2 244             1 256

C:\Users\subh6068\SimplicityStudio\v4_workspace\client\IAR ARM - Default\emdrv: [16]
    dmadrv.o                                      976                        385
    gpiointerrupt.o                               200                         64
    rtcdriver.o                                 1 356                40      200
    tempdrv.o                                     756                64      186
    uartdrv.o                                   4 132                         20
    ustimer.o                                     420                         12
    -------------------------------------------------------------------------------------
    Total:                                      7 840               104      867

C:\Users\subh6068\SimplicityStudio\v4_workspace\client\IAR ARM - Default\emlib: [17]
    em_adc.o                                      332
    em_cmu.o                                    1 984                 4        4
    em_emu.o                                    1 716                         20
    em_gpio.o                                     332
    em_int.o                                                                   4
    em_ldma.o                                     364
    em_leuart.o                                    42
    em_mpu.o                                       80
    em_msc.o                                       40      512      512
    em_rmu.o                                      200
    em_rtcc.o                                     112
    em_system.o                                    52
    em_timer.o                                    238
    em_usart.o                                    314
    em_wdog.o                                      24
    system_efr32mg1p.o                            168                12       16
    -------------------------------------------------------------------------------------
    Total:                                      5 998      512      528       44

C:\Users\subh6068\SimplicityStudio\v4_workspace\client\IAR ARM - Default\external-generated-files: [18]
    bootloader-interface-app.o                    376                        504
    -------------------------------------------------------------------------------------
    Total:                                        376                        504

C:\Users\subh6068\SimplicityStudio\v4_workspace\client\IAR ARM - Default\global-address-prefix-debug: [19]
    global-address-prefix-debug.o                 120
    -------------------------------------------------------------------------------------
    Total:                                        120

C:\Users\subh6068\SimplicityStudio\v4_workspace\client\IAR ARM - Default\hal-library\EFR32: [20]
    assert-crash-handlers.o                       488
    crc.o                                          36
    cstartup-common.o                             192               396    3 926
    faults-v7m.o                                  126
    isr-stubs.o                                     4
    mem-util.o                                    246
    mfg-token.o                                   484                 8
    micro-common.o                                284
    micro.o                                       948               292       12
    mpu.o                                         138                80       80
    random.o                                       72                 4        4
    sleep-efm32.o                                 400                          8
    token-def.o                                                     884
    token.o                                       308                          2
    -------------------------------------------------------------------------------------
    Total:                                      3 726             1 664    4 032

C:\Users\subh6068\SimplicityStudio\v4_workspace\client\IAR ARM - Default\heartbeat: [21]
    heartbeat.o                                    32                          4
    -------------------------------------------------------------------------------------
    Total:                                         32                          4

C:\Users\subh6068\SimplicityStudio\v4_workspace\client\IAR ARM - Default\i2c-driver\EFR32: [22]
    em_i2c.o                                      724                         12
    i2c-driver.o                                  150                24       24
    i2cspm.o                                      216
    -------------------------------------------------------------------------------------
    Total:                                      1 090                24       36

C:\Users\subh6068\SimplicityStudio\v4_workspace\client\IAR ARM - Default\icmp-cli: [23]
    icmp-cli.o                                    296
    -------------------------------------------------------------------------------------
    Total:                                        296

C:\Users\subh6068\SimplicityStudio\v4_workspace\client\IAR ARM - Default\icmp-debug: [24]
    icmp-debug.o                                  260
    -------------------------------------------------------------------------------------
    Total:                                        260

C:\Users\subh6068\SimplicityStudio\v4_workspace\client\IAR ARM - Default\idle-sleep: [25]
    idle-sleep.o                                  168
    -------------------------------------------------------------------------------------
    Total:                                        168

C:\Users\subh6068\SimplicityStudio\v4_workspace\client\IAR ARM - Default\led\EFR32: [26]
    led.o                                         108
    -------------------------------------------------------------------------------------
    Total:                                        108

C:\Users\subh6068\SimplicityStudio\v4_workspace\client\IAR ARM - Default\main: [27]
    main.o                                        540                         24
    -------------------------------------------------------------------------------------
    Total:                                        540                         24

C:\Users\subh6068\SimplicityStudio\v4_workspace\client\IAR ARM - Default\network-management-cli: [28]
    network-management-cli.o                    1 712
    -------------------------------------------------------------------------------------
    Total:                                      1 712

C:\Users\subh6068\SimplicityStudio\v4_workspace\client\IAR ARM - Default\scan-debug: [29]
    scan-debug.o                                  548
    -------------------------------------------------------------------------------------
    Total:                                        548

C:\Users\subh6068\SimplicityStudio\v4_workspace\client\IAR ARM - Default\sensor-control: [30]
    sensor_control.o                              552                          1
    -------------------------------------------------------------------------------------
    Total:                                        552                          1

C:\Users\subh6068\SimplicityStudio\v4_workspace\client\IAR ARM - Default\serial\EFR32: [31]
    com.o                                       2 288               350    1 100
    ember-printf.o                                732
    serial.o                                      212
    -------------------------------------------------------------------------------------
    Total:                                      3 232               350    1 100

C:\Users\subh6068\SimplicityStudio\v4_workspace\client\IAR ARM - Default\sim-eeprom1\EFR32: [32]
    sim-eeprom.o                                  408                36    8 224
    -------------------------------------------------------------------------------------
    Total:                                        408                36    8 224

C:\Users\subh6068\SimplicityStudio\v4_workspace\client\IAR ARM - Default\slaac-client: [33]
    slaac-client.o                                212
    -------------------------------------------------------------------------------------
    Total:                                        212

C:\Users\subh6068\SimplicityStudio\v4_workspace\client\IAR ARM - Default\stack\thread-stack: [34]
    ember-ip-configuration.o                       68                60      522
    -------------------------------------------------------------------------------------
    Total:                                         68                60      522

C:\Users\subh6068\SimplicityStudio\v4_workspace\client\IAR ARM - Default\tftp-bootload-target: [35]
    tftp-15-4.o                                    74
    tftp-bootload.o                                20
    tftp-bootloader-server.o                      804                         20
    tftp-bootloader.o                             220                          2
    tftp-server.o                                 772
    tftp.o                                        272                10       26
    -------------------------------------------------------------------------------------
    Total:                                      2 162                10       48

C:\Users\subh6068\SimplicityStudio\v4_workspace\client\IAR ARM - Default\udp-cli: [36]
    udp-cli.o                                     196
    -------------------------------------------------------------------------------------
    Total:                                        196

C:\Users\subh6068\SimplicityStudio\v4_workspace\client\IAR ARM - Default\version-debug: [37]
    version-debug.o                               168                48
    -------------------------------------------------------------------------------------
    Total:                                        168                48

command line: [38]
    -------------------------------------------------------------------------------------
    Total:

dhcp-library.a: [39]
    dhcp-address-table.o                          200                 8        8
    dhcp-client.o                                 532                          1
    dhcp-server.o                                 580
    dhcp.o                                      2 468                60       26
    -------------------------------------------------------------------------------------
    Total:                                      3 780                68       35

dl7M_tln.a: [40]
    errno.o                                        12                 4        4
    rand.o                                        224               140      140
    sprintf.o                                      52
    sscanf.o                                       36
    strncmp.o                                      42
    strnlen.o                                      22
    strrchr.o                                      24
    xprintfsmall.o                              1 240
    xscanffull.o                                2 940
    xsprout.o                                      10
    xsscin.o                                       30
    xstoflt.o                                     436
    xstoll.o                                      162
    xstopfx.o                                     304
    xstoul.o                                      412
    xstoull.o                                     436
    xstoxflt.o                                    512
    xtls.o                                          2
    -------------------------------------------------------------------------------------
    Total:                                      6 896               144      144

hal-library.a: [41]
    cstartup-iar.o                                384
    flash.o                                       200
    micro-common-internal.o                        30
    micro-internal.o                              400                 5        4
    register-access.o                              46
    system-timer.o                                220                          8
    -------------------------------------------------------------------------------------
    Total:                                      1 280                 5       12

m7M_tlv.a: [42]
    DblAdd.o                                      232
    DblCmpEq.o                                     32
    DblDiv.o                                      582
    DblMul.o                                      418
    DblSub.o                                      364
    DblToFlt.o                                    144
    I32ToDbl.o                                     44
    fpinit_M.o                                     34
    xdnorm.o                                       66
    xdscale.o                                     276
    xdtento.o                                     512
    xdunscal.o                                     86
    xstold.o                                      360
    -------------------------------------------------------------------------------------
    Total:                                      3 150

mbedtls-library.a: [43]
    bignum.o                                    4 532
    ecjpake.o                                   2 516                16
    ecp.o                                       5 760                12
    ecp_curves.o                                1 160                 4        4
    jpake-ecc-mbedtls.o                           696                          8
    md.o                                           68
    md_wrap.o                                      80               112
    sha256.o                                       54
    sl_ecp.o                                    1 672
    sl_sha256.o                                   708
    -------------------------------------------------------------------------------------
    Total:                                     17 246               144       12

rt7M_tl.a: [44]
    ABImemclr.o                                     6
    ABImemclr4.o                                    6
    ABImemcpy_unaligned.o                         118
    ABImemset.o                                   102
    ABImemset48.o                                  50
    I64DivMod.o                                   306
    I64DivZer.o                                     2
    memchr.o                                       88
    memcmp_unaligned.o                             98
    strchr.o                                       22
    strcmp_unaligned.o                             66
    strcpy_unaligned.o                             68
    strlen.o                                       54
    -------------------------------------------------------------------------------------
    Total:                                        986

sim-eeprom1-library.a: [45]
    sim-eeprom-internal.o                       2 860                          8
    -------------------------------------------------------------------------------------
    Total:                                      2 860                          8

thread-stack.a: [46]
    6lowpan-header.o                            3 244                 8        8
    802-15-4-ccm.o                              1 164                          4
    address-cache.o                               984                28       12
    address-management.o                        1 512                          1
    aes.o                                         212
    association.o                                 212                36       68
    buffer-malloc.o                               292                          8
    buffer-management.o                         3 188                 6       48
    buffer-queue.o                                772
    byte-utilities.o                              472
    child-aging.o                                 668                84       36
    child-data.o                                2 008                 2        4
    child-table.o                                 164
    coap-diagnostic-stack.o                     1 084
    coap-stack.o                                1 000
    coap.o                                      2 952               684       12
    command.o                                     652                 1        4
    commission-dataset.o                        3 832               120      148
    commission.o                                7 528               144      124
    connection.o                                  640                48       16
    context-table.o                               314
    debug-jtag.o                                  482                         18
    debug.o                                       668                         21
    dispatch.o                                  4 328                 4       26
    distributed-key-management.o                1 156                44       96
    dtls-join.o                                 1 540                 8       32
    dtls.o                                      1 244                 2        2
    em_crypto.o                                   350
    eui64.o                                        76                         20
    event-control.o                               420                          2
    event-queue.o                                 860
    fragment.o                                  2 076                44       24
    global-prefix.o                             1 350                44       33
    icmp-simple.o                                 174
    icmp.o                                        246
    ieee802154_MRFSKFECWhiteningModeSwitch.o       32
    ieee802154_annotated.o                                        3 660
    ieee802154_configurator_out.o                                   592
    ieee802154_filtering.o                        104
    ieee802154_legacyphyconfig.o                  160               620
    ieee802154_phy.o                            2 664                 2       96
    ip-address.o                                1 516                83       40
    ip-header.o                                   952
    ip-mac-header.o                             2 328                 2        2
    ip-mac-receive.o                              604                         16
    ip-packet-header.o                            900
    ip-stack.o                                  3 008                64       49
    ir_cal.o                                       94
    jit.o                                         536                48       16
    join.o                                      6 256                88      250
    local-server-data.o                         1 508                44       16
    log.o                                          56                         12
    mac-arbiter.o                                 976                 1       17
    mac-efr32.o                                   336                 1       10
    mac-header-util.o                              72
    mac-indirect.o                              1 404                47       24
    mac.o                                         560                40      142
    mark-list.o                                   196                          2
    mle.o                                       8 476                99       63
    multicast.o                                   640                44       19
    network-data.o                              4 096                50       30
    network-fragmentation.o                       892               145       78
    pa.o                                        1 680                 1       13
    phy-common.o                                2 600                15      230
    phy-util.o                                     18
    phy.o                                         300                 4        6
    phy_utils.o                                    42
    protimer.o                                    404
    pti.o                                         272                          8
    radio.o                                     2 012                        666      148
    radio_cmu.o                                   196
    retry.o                                       616                36       84
    rf_rand.o                                     332
    rf_test.o                                     136                         36
    rip-neighbor.o                              3 596                24       17
    rip.o                                       2 076                92      679
    router-selection.o                            604                56       22
    scan.o                                      1 188                40       48
    sha256.o                                    1 032
    synth.o                                       720                 6       20
    tcp-stub.o                                     14
    tempcal.o                                      80
    thread-key-stretch.o                          492
    tls-ccm-record.o                            1 284                 8
    tls-handshake-crypto.o                        728
    tls-handshake.o                             4 292
    tls-jpake.o                                   100
    tls-record-util.o                             784
    tls-session-state.o                           144                          4
    tls-test-credentials.o                                           42        4
    transport-header.o                            936                 2        2
    udp-simple.o                                   78
    udp.o                                         848                          4
    unicast-table.o                               128                44       32
    wakeup-stubs.o                                 14
    -------------------------------------------------------------------------------------
    Total:                                    113 976             7 307    3 524      148

    Gaps                                           76               232       35
    Linker created                                 24                 4    6 000
-----------------------------------------------------------------------------------------
    Grand Total:                              191 032      512   13 300   25 927      148


*******************************************************************************
*** ENTRY LIST
***

Entry                      Address    Size  Type      Object
-----                      -------    ----  ----      ------
.bss$$Base              0x200066f8           --   Gb  - Linker created -
.bss$$Length            0x000018f3           --   Gb  - Linker created -
.bss$$Limit             0x20007feb           --   Gb  - Linker created -
.data$$Base             0x20006170           --   Gb  - Linker created -
.data$$Limit            0x20006668           --   Gb  - Linker created -
.data_init$$Base        0x000358f4           --   Gb  - Linker created -
.data_init$$Length      0x000004fc           --   Gb  - Linker created -
.data_init$$Limit       0x00035df0           --   Gb  - Linker created -
.noinit$$Base           0x00000000           --   Gb  - Linker created -
.text$$Base             0x000043e0           --   Gb  - Linker created -
.text$$Limit            0x00032e18           --   Gb  - Linker created -
.textrw$$Base           0x20005f70           --   Gb  - Linker created -
.textrw$$Limit          0x20006170           --   Gb  - Linker created -
.textrw_init$$Base      0x000041e0           --   Gb  - Linker created -
.textrw_init$$Length    0x00000200           --   Gb  - Linker created -
.textrw_init$$Limit     0x000043e0           --   Gb  - Linker created -
ACMP0_IRQHandler        0x000322b5          Code  Wk  isr-stubs.o [20]
ADC0_IRQHandler         0x0003264b    0x76  Code  Gb  adc.o [4]
ADC_InitSingle          0x0003234b    0xaa  Code  Gb  em_adc.o [17]
ADC_LoadDevinfoCal      0x000322c7    0x7e  Code  Lc  em_adc.o [17]
AGC_IRQCallback         0x000248e1     0xe  Code  Lc  ieee802154_phy.o [46]
AGC_IRQHandler          0x00024f75     0x8  Code  Gb  radio.o [46]
ALIGN_CSTACK$$Base      0x20005098           --   Gb  - Linker created -
ALIGN_CSTACK$$Limit     0x20005f70           --   Gb  - Linker created -
APPRO_block$$Base       0x00004100           --   Gb  - Linker created -
APPRO_block$$Limit      0x00035e80           --   Gb  - Linker created -
APPRW_block$$Base       0x20005098           --   Gb  - Linker created -
APPRW_block$$Limit      0x20007feb           --   Gb  - Linker created -
APP_RAM$$Base           0x00000000           --   Gb  - Linker created -
APP_RAM$$Length         0x00000000           --   Gb  - Linker created -
BUFC_IRQHandler         0x00024f85     0x8  Code  Gb  radio.o [46]
BUS_RegBitRead          0x0001b257     0xe  Code  Lc  em_cmu.o [17]
BUS_RegBitRead          0x00028dbb     0xe  Code  Lc  em_emu.o [17]
BUS_RegBitWrite         0x000309fd     0xe  Code  Lc  em_i2c.o [22]
BUS_RegBitWrite         0x0002ecf5     0xe  Code  Lc  i2cspm.o [22]
BUS_RegBitWrite         0x0001bfd1     0xe  Code  Lc  micro-common.o [20]
BUS_RegBitWrite         0x000322b9     0xe  Code  Lc  em_adc.o [17]
BUS_RegBitWrite         0x0001b249     0xe  Code  Lc  em_cmu.o [17]
BUS_RegBitWrite         0x00028dad     0xe  Code  Lc  em_emu.o [17]
BUS_RegBitWrite         0x00008851     0xe  Code  Lc  em_gpio.o [17]
BUS_RegBitWrite         0x00007649     0xe  Code  Lc  uartdrv.o [16]
BUS_RegBitWrite         0x00012b3b     0xe  Code  Lc  phy-common.o [46]
BUS_RegBitWrite         0x0001c0ed     0xe  Code  Lc  micro-internal.o [41]
BUS_RegBitWrite         0x000241f5     0xe  Code  Lc  ieee802154_phy.o [46]
BUS_RegBitWrite         0x00024c49     0xe  Code  Lc  radio.o [46]
BUS_RegBitWrite         0x000270b9     0xe  Code  Lc  rf_rand.o [46]
BUS_RegBitWrite         0x00023c8d     0xe  Code  Lc  aes.o [46]
BUS_RegBitWrite         0x0002d91d     0xe  Code  Lc  em_crypto.o [46]
BUS_RegBitWrite         0x0002f469     0xe  Code  Lc  protimer.o [46]
BUS_RegMaskedClear      0x00029d51     0x8  Code  Lc  em_ldma.o [17]
BUS_RegMaskedRead       0x00028dc9     0x6  Code  Lc  em_emu.o [17]
BUS_RegMaskedWrite      0x00030a0b     0xe  Code  Lc  em_i2c.o [22]
BUS_RegMaskedWrite      0x0001b265     0xe  Code  Lc  em_cmu.o [17]
BUS_RegMaskedWrite      0x0000885f     0xe  Code  Lc  em_gpio.o [17]
CMU_ClockEnable         0x0001b36f    0x68  Code  Gb  em_cmu.o [17]
CMU_ClockFreqGet        0x0001b3d7    0xe2  Code  Gb  em_cmu.o [17]
CMU_ClockPrescGet       0x0001b4bd    0x68  Code  Gb  em_cmu.o [17]
CMU_ClockSelectGet      0x0001b525    0x90  Code  Gb  em_cmu.o [17]
CMU_ClockSelectSet      0x0001b5b5    0xfa  Code  Gb  em_cmu.o [17]
CMU_HFXOInit            0x0001b6af    0x94  Code  Gb  em_cmu.o [17]
CMU_IRQHandler          0x000322b5          Code  Wk  isr-stubs.o [20]
CMU_Log2ToDiv           0x0001b273     0x8  Code  Lc  em_cmu.o [17]
CMU_OscillatorEnable    0x0001b749    0xfe  Code  Gb  em_cmu.o [17]
CMU_OscillatorTuningGet
                        0x0001b84f    0x36  Code  Gb  em_cmu.o [17]
CMU_OscillatorTuningOptimize
                        0x0001b96d    0x22  Code  Gb  em_cmu.o [17]
CMU_OscillatorTuningSet
                        0x0001b88d    0x98  Code  Gb  em_cmu.o [17]
CMU_OscillatorTuningWait
                        0x0001b929    0x40  Code  Gb  em_cmu.o [17]
COM_ForceWriteData      0x00005f83    0x2c  Code  Gb  com.o [31]
COM_Init                0x00005cb3    0xfc  Code  Gb  com.o [31]
COM_InternalPowerDown   0x00005809    0x3c  Code  Gb  com.o [31]
COM_InternalPowerUp     0x00005845    0x34  Code  Gb  com.o [31]
COM_PrintfVarArg        0x00005e8d    0x22  Code  Gb  com.o [31]
COM_RX_IRQHandler       0x00005937    0x94  Code  Gb  com.o [31]
COM_ReadAvailable       0x00005db9    0x16  Code  Gb  com.o [31]
COM_ReadByte            0x00005dcf    0x96  Code  Gb  com.o [31]
COM_Unused              0x00006015    0x12  Code  Gb  com.o [31]
COM_WaitSend            0x00005fb1    0x50  Code  Gb  com.o [31]
COM_WriteData           0x00005eb1    0xa6  Code  Gb  com.o [31]
COM_WriteUsed           0x00005e73     0xc  Code  Gb  com.o [31]
CRYOTIMER_IRQHandler    0x000322b5          Code  Wk  isr-stubs.o [20]
CRYPTO_AES_ECB128       0x0002d9e1     0xa  Code  Gb  em_crypto.o [46]
CRYPTO_AES_ECBx         0x0002d9fb    0x3c  Code  Lc  em_crypto.o [46]
CRYPTO_AES_ProcessLoop  0x0002da3d    0x3e  Code  Lc  em_crypto.o [46]
CRYPTO_BurstFromCrypto  0x0002d93f    0x14  Code  Lc  em_crypto.o [46]
CRYPTO_BurstFromCrypto  0x0002ede1    0x14  Code  Lc  sl_ecp.o [43]
CRYPTO_BurstFromCrypto  0x00032ac1    0x14  Code  Lc  sl_sha256.o [43]
CRYPTO_BurstToCrypto    0x00023c9b    0x14  Code  Lc  aes.o [46]
CRYPTO_BurstToCrypto    0x0002d92b    0x14  Code  Lc  em_crypto.o [46]
CRYPTO_BurstToCrypto    0x0002edcd    0x14  Code  Lc  sl_ecp.o [43]
CRYPTO_BurstToCrypto    0x00032aad    0x14  Code  Lc  sl_sha256.o [43]
CRYPTO_DData0_4LSBitsRead
                        0x0002ee21     0xa  Code  Lc  sl_ecp.o [43]
CRYPTO_DDataRead        0x0002ee0b    0x16  Code  Lc  sl_ecp.o [43]
CRYPTO_DDataRead        0x00032ad5    0x16  Code  Lc  sl_sha256.o [43]
CRYPTO_DDataWrite       0x0002d957    0x10  Code  Lc  em_crypto.o [46]
CRYPTO_DDataWrite       0x0002edf5    0x16  Code  Lc  sl_ecp.o [43]
CRYPTO_DataRead         0x0002d955     0x2  Code  Lc  em_crypto.o [46]
CRYPTO_DataWrite        0x0002d953     0x2  Code  Lc  em_crypto.o [46]
CRYPTO_IRQHandler       0x000322b5          Code  Wk  isr-stubs.o [20]
CRYPTO_KeyBufWrite      0x00023caf    0x3a  Code  Lc  aes.o [46]
CRYPTO_KeyBufWrite      0x0002d96f    0x2e  Code  Lc  em_crypto.o [46]
CRYPTO_ModulusSet       0x0002d99d    0x2c  Code  Gb  em_crypto.o [46]
CSTACK$$Base            0x20005098           --   Gb  - Linker created -
CSTACK$$Limit           0x20005f70           --   Gb  - Linker created -
CheckParams             0x00007a97    0x1c  Code  Lc  uartdrv.o [16]
ConfigGpio              0x00007f89    0xa0  Code  Lc  uartdrv.o [16]
DEBUG_CHANNEL$$Base     0x20007ff0           --   Gb  - Linker created -
DEBUG_CHANNEL$$Limit    0x20008000           --   Gb  - Linker created -
DLIB_PERTHREAD_INITIALIZED_DATA$$Base
                        0x20006668           --   Gb  - Linker created -
DLIB_PERTHREAD_INITIALIZED_DATA$$Limit
                        0x200066f8           --   Gb  - Linker created -
DLIB_PERTHREAD_ZERO_DATA$$Base
                        0x200066f8           --   Gb  - Linker created -
DLIB_PERTHREAD_ZERO_DATA$$Length
                        0x00000000           --   Gb  - Linker created -
DLIB_PERTHREAD_ZERO_DATA$$Limit
                        0x200066f8           --   Gb  - Linker created -
DMADRV_AllocateChannel  0x0001ba31    0x4e  Code  Gb  dmadrv.o [16]
DMADRV_Init             0x0001ba7f    0x52  Code  Gb  dmadrv.o [16]
DMADRV_MemoryPeripheral
                        0x0001bad1    0x18  Code  Gb  dmadrv.o [16]
DMADRV_PauseTransfer    0x0001bb21    0x1c  Code  Gb  dmadrv.o [16]
DMADRV_PeripheralMemory
                        0x0001bae9    0x18  Code  Gb  dmadrv.o [16]
DMADRV_ResumeTransfer   0x0001bb3d    0x1c  Code  Gb  dmadrv.o [16]
DMADRV_TransferActive   0x0001bb7f    0x2e  Code  Gb  dmadrv.o [16]
DMADRV_TransferRemainingCount
                        0x0001bbc7    0x24  Code  Gb  dmadrv.o [16]
DelayTicksPolled        0x00029ffb    0x20  Code  Lc  ustimer.o [16]
DequeueBuffer           0x00007801    0x24  Code  Lc  uartdrv.o [16]
DisableReceiver         0x000078a1    0x30  Code  Lc  uartdrv.o [16]
EFRDRV_actionFunc       0x00025404    0x20  Data  Lc  radio.o [46]
EFRDRV_irqClbk          0x20007c44    0x40  Data  Lc  radio.o [46]
EMHEAP$$Base            0x20000000           --   Gb  - Linker created -
EMHEAP$$Limit           0x20001770           --   Gb  - Linker created -
EMHEAP_overlay$$Base    0x20000000           --   Gb  - Linker created -
EMHEAP_overlay$$Limit   0x20001770           --   Gb  - Linker created -
EMU_DCDCInit            0x000290ad   0x13e  Code  Gb  em_emu.o [17]
EMU_DCDCLnRcoBandSet    0x000293df    0x22  Code  Gb  em_emu.o [17]
EMU_DCDCModeSet         0x00029083    0x2a  Code  Gb  em_emu.o [17]
EMU_DCDCOptimizeSlice   0x00029379    0x66  Code  Gb  em_emu.o [17]
EMU_DCDCOutputVoltageSet
                        0x000291eb   0x18e  Code  Gb  em_emu.o [17]
EMU_EM4Init             0x00028fd7    0x32  Code  Gb  em_emu.o [17]
EMU_EnterEM2            0x00028eb3    0x44  Code  Gb  em_emu.o [17]
EMU_EnterEM3            0x00028ef7    0x5e  Code  Gb  em_emu.o [17]
EMU_EnterEM4            0x00028f65    0x60  Code  Gb  em_emu.o [17]
EMU_IRQHandler          0x00027da3     0x2  Code  Gb  tempdrv.o [16]
EMU_IntDisable          0x00027d89     0xe  Code  Lc  tempdrv.o [16]
EMU_IntEnable           0x00027d97     0xc  Code  Lc  tempdrv.o [16]
EMU_UpdateOscConfig     0x00028fc5    0x12  Code  Gb  em_emu.o [17]
ERASE_CRITICAL_THRESHOLD
                        0x00033d98     0x2  Data  Gb  sim-eeprom.o [32]
EnableReceiver          0x00007869    0x38  Code  Lc  uartdrv.o [16]
EnqueueBuffer           0x000077ad    0x54  Code  Lc  uartdrv.o [16]
FPUEH_IRQHandler        0x000322b5          Code  Wk  isr-stubs.o [20]
FRC_IRQCallback         0x000247c5    0x8a  Code  Lc  ieee802154_phy.o [46]
FRC_IRQHandler          0x00024f61     0x8  Code  Gb  radio.o [46]
FRC_PRI_IRQHandler      0x00024f59     0x8  Code  Gb  radio.o [46]
FcApplyState            0x00007751    0x5c  Code  Lc  uartdrv.o [16]
FrameAnalysis           0x0002820b    0xe8  Code  Gb  B2Bprotocol.o [2]
GPIOINT_CallbackRegister
                        0x0001be13    0x2c  Code  Gb  gpiointerrupt.o [16]
GPIOINT_IRQDispatcher   0x0001be3f    0x28  Code  Lc  gpiointerrupt.o [16]
GPIOINT_Init            0x0001bdf7    0x1c  Code  Gb  gpiointerrupt.o [16]
GPIO_DbgLocationSet     0x00008895     0x2  Code  Gb  em_gpio.o [17]
GPIO_EVEN_IRQHandler    0x0001be67     0xe  Code  Gb  gpiointerrupt.o [16]
GPIO_ExtIntConfig       0x00008897    0x70  Code  Gb  em_gpio.o [17]
GPIO_IntConfig          0x00007681    0x12  Code  Lc  uartdrv.o [16]
GPIO_ODD_IRQHandler     0x0001be89    0x12  Code  Gb  gpiointerrupt.o [16]
GPIO_PinInGet           0x00028c55    0x18  Code  Lc  button.o [7]
GPIO_PinModeSet         0x00008911    0x6a  Code  Gb  em_gpio.o [17]
GPIO_PinOutClear        0x0000886d     0xe  Code  Lc  em_gpio.o [17]
GPIO_PinOutClear        0x00007657     0xe  Code  Lc  uartdrv.o [16]
GPIO_PinOutSet          0x0000579d    0x1c  Code  Lc  com.o [31]
GPIO_PinOutSet          0x0000887b     0xc  Code  Lc  em_gpio.o [17]
GPIO_PinOutSet          0x00007665     0xc  Code  Lc  uartdrv.o [16]
GetTailBuffer           0x00007833    0x14  Code  Lc  uartdrv.o [16]
HEADER_block$$Base      0x00004000           --   Gb  - Linker created -
HEADER_block$$Limit     0x000040ac           --   Gb  - Linker created -
HwFcGetClearToSendPin   0x000076bb    0x2e  Code  Lc  uartdrv.o [16]
HwFcManageClearToSend   0x000076e9    0x68  Code  Lc  uartdrv.o [16]
I2C0_IRQHandler         0x000322b5          Code  Wk  isr-stubs.o [20]
I2CSPM_Init             0x0002ed03    0x94  Code  Gb  i2cspm.o [22]
I2CSPM_Transfer         0x0002ed97    0x20  Code  Gb  i2cspm.o [22]
I2C_BusFreqSet          0x00030a19    0x4c  Code  Gb  em_i2c.o [22]
I2C_Init                0x00030a65    0x30  Code  Gb  em_i2c.o [22]
I2C_Transfer            0x00030a99   0x1ca  Code  Gb  em_i2c.o [22]
I2C_TransferInit        0x00030c63    0x54  Code  Gb  em_i2c.o [22]
IDAC0_IRQHandler        0x000322b5          Code  Wk  isr-stubs.o [20]
ID_COUNT                0x00033d9a     0x2  Data  Gb  sim-eeprom.o [32]
IEEE802154PHY_AGCCCAThresholdSet
                        0x00024b31    0x14  Code  Gb  ieee802154_phy.o [46]
IEEE802154PHY_AGCReset  0x00024b1d    0x14  Code  Lc  ieee802154_phy.o [46]
IEEE802154PHY_CRCConfig
                        0x00024a2d     0xc  Code  Gb  ieee802154_phy.o [46]
IEEE802154PHY_CRCSetup  0x000249f1    0x3c  Code  Gb  ieee802154_phy.o [46]
IEEE802154PHY_ChannelSet
                        0x000244f1    0x74  Code  Gb  ieee802154_phy.o [46]
IEEE802154PHY_Config    0x00024391   0x128  Code  Lc  ieee802154_phy.o [46]
IEEE802154PHY_DataIndicationGet
                        0x00024565    0xc0  Code  Gb  ieee802154_phy.o [46]
IEEE802154PHY_DataRequest
                        0x0002466d    0x2a  Code  Gb  ieee802154_phy.o [46]
IEEE802154PHY_EnableAutoAckSet
                        0x0002544d     0xa  Code  Gb  ieee802154_filtering.o [46]
IEEE802154PHY_FRCConvEncoderAndBlockEncoderConfig
                        0x0002da81    0x12  Code  Gb  ieee802154_MRFSKFECWhiteningModeSwitch.o [46]
IEEE802154PHY_FRCDefaultDFLSet
                        0x00024a49    0x12  Code  Gb  ieee802154_phy.o [46]
IEEE802154PHY_FRCDefaultFCDSet
                        0x00024a5b    0x16  Code  Gb  ieee802154_phy.o [46]
IEEE802154PHY_FRCHandlePauseIRQs
                        0x0002da7d     0x2  Code  Gb  ieee802154_MRFSKFECWhiteningModeSwitch.o [46]
IEEE802154PHY_FRCReset  0x00024adb    0x1a  Code  Lc  ieee802154_phy.o [46]
IEEE802154PHY_FramePendingSet
                        0x000244db    0x16  Code  Gb  ieee802154_phy.o [46]
IEEE802154PHY_HandleProTimerCCIrq
                        0x000248ef    0x12  Code  Lc  ieee802154_phy.o [46]
IEEE802154PHY_Init      0x00024291   0x100  Code  Gb  ieee802154_phy.o [46]
IEEE802154PHY_IsRACProcessingRxFrame
                        0x000244c9    0x12  Code  Gb  ieee802154_phy.o [46]
IEEE802154PHY_LBTCfgSet
                        0x00024711    0x7e  Code  Gb  ieee802154_phy.o [46]
IEEE802154PHY_LBTStart  0x0002478f    0x12  Code  Gb  ieee802154_phy.o [46]
IEEE802154PHY_LBTStop   0x000247a7    0x1e  Code  Gb  ieee802154_phy.o [46]
IEEE802154PHY_LegacyPhyConfigGet
                        0x0002ddcd    0x5c  Code  Gb  ieee802154_legacyphyconfig.o [46]
IEEE802154PHY_LegacyPhySynthConfigGet
                        0x0002de2d     0x2  Code  Gb  ieee802154_legacyphyconfig.o [46]
IEEE802154PHY_LocalIeeeAddrCfgSet
                        0x00025479     0xa  Code  Gb  ieee802154_filtering.o [46]
IEEE802154PHY_LocalPanIdCfgSet
                        0x0002546d     0xc  Code  Gb  ieee802154_filtering.o [46]
IEEE802154PHY_LocalShortAddrCfgSet
                        0x00025461     0xc  Code  Gb  ieee802154_filtering.o [46]
IEEE802154PHY_PHRLengthGet
                        0x00024a39    0x10  Code  Gb  ieee802154_phy.o [46]
IEEE802154PHY_PROTIMERClockSet
                        0x00024b45    0x18  Code  Gb  ieee802154_phy.o [46]
IEEE802154PHY_PROTIMERReset
                        0x00024af5    0x28  Code  Lc  ieee802154_phy.o [46]
IEEE802154PHY_PROTIMERTimerStart
                        0x000246a9    0x68  Code  Gb  ieee802154_phy.o [46]
IEEE802154PHY_PROTIMERTimerStop
                        0x0002469b     0xe  Code  Gb  ieee802154_phy.o [46]
IEEE802154PHY_PROTIMERWrapCntTopSet
                        0x00024b5d     0xa  Code  Gb  ieee802154_phy.o [46]
IEEE802154PHY_PanCoordinatorModeSet
                        0x00025457     0xa  Code  Gb  ieee802154_filtering.o [46]
IEEE802154PHY_RACHandleFramePendingSEQIRQ
                        0x00013405    0x52  Code  Gb  phy-common.o [46]
IEEE802154PHY_RACHandleModeSwitchSEQIRQs
                        0x0002da7f     0x2  Code  Gb  ieee802154_MRFSKFECWhiteningModeSwitch.o [46]
IEEE802154PHY_RACHandleTempcalSEQIRQ
                        0x00013465     0x4  Code  Gb  phy-common.o [46]
IEEE802154PHY_RACReset  0x00024a71    0x60  Code  Lc  ieee802154_phy.o [46]
IEEE802154PHY_RxSrcEnable
                        0x000244b9    0x10  Code  Gb  ieee802154_phy.o [46]
IEEE802154PHY_SrcAddrCfgSet
                        0x00025483    0x1c  Code  Gb  ieee802154_filtering.o [46]
IEEE802154PHY_Stop      0x00024991    0x60  Code  Lc  ieee802154_phy.o [46]
IEEE802154PHY_SynthConfigGet
                        0x00024b67     0x8  Code  Lc  ieee802154_phy.o [46]
IEEE802154PHY_WriteTxBuffer
                        0x00024625    0x48  Code  Gb  ieee802154_phy.o [46]
INTERNAL_STORAGE$$Base  0x00000000           --   Gb  - Linker created -
INT_Disable             0x000057cf    0x16  Code  Lc  com.o [31]
INT_Disable             0x00029d59    0x14  Code  Lc  em_ldma.o [17]
INT_Disable             0x0001ba09    0x16  Code  Lc  dmadrv.o [16]
INT_Disable             0x00029475    0x16  Code  Lc  rtcdriver.o [16]
INT_Disable             0x00007693    0x16  Code  Lc  uartdrv.o [16]
INT_Disable             0x00024203    0x16  Code  Lc  ieee802154_phy.o [46]
INT_Disable             0x00024c57    0x16  Code  Lc  radio.o [46]
INT_Enable              0x000057e5    0x12  Code  Lc  com.o [31]
INT_Enable              0x00029d6d    0x10  Code  Lc  em_ldma.o [17]
INT_Enable              0x0001ba1f    0x12  Code  Lc  dmadrv.o [16]
INT_Enable              0x0002948b    0x12  Code  Lc  rtcdriver.o [16]
INT_Enable              0x000076a9    0x12  Code  Lc  uartdrv.o [16]
INT_Enable              0x00024219    0x12  Code  Lc  ieee802154_phy.o [46]
INT_Enable              0x00024c6d    0x12  Code  Lc  radio.o [46]
INT_LockCnt             0x20006ef8     0x4  Data  Gb  em_int.o [17]
IRCAL_GetDiValue        0x0002dd81    0x32  Code  Gb  ir_cal.o [46]
IRCAL_Set               0x0002dd6d    0x14  Code  Gb  ir_cal.o [46]
InitializeDma           0x000080cb    0x26  Code  Lc  uartdrv.o [16]
InitializeGpioFlowControl
                        0x000080a5    0x26  Code  Lc  uartdrv.o [16]
InitializeQueues        0x0000807f    0x26  Code  Lc  uartdrv.o [16]
LDMA_EnableChannelRequest
                        0x00029d7d     0xc  Code  Gb  em_ldma.o [17]
LDMA_IRQHandler         0x0001bbef    0x64  Code  Gb  dmadrv.o [16]
LDMA_Init               0x00029d89    0x48  Code  Gb  em_ldma.o [17]
LDMA_StartTransfer      0x00029dd1    0x8c  Code  Gb  em_ldma.o [17]
LDMA_TransferRemainingCount
                        0x00029e5d    0x3a  Code  Gb  em_ldma.o [17]
LEFT_BASE               0x00033d90     0x2  Data  Gb  sim-eeprom.o [32]
LEFT_TOP                0x00033d92     0x2  Data  Gb  sim-eeprom.o [32]
LETIMER0_IRQHandler     0x000322b5          Code  Wk  isr-stubs.o [20]
LEUART0_IRQHandler      0x000322b5          Code  Wk  isr-stubs.o [20]
LEUART_Enable           0x0000762b    0x14  Code  Gb  em_leuart.o [17]
LEUART_Sync             0x0000761d     0xe  Code  Lc  em_leuart.o [17]
LoadInt                 0x0002fc51    0x4c  Code  Lc  xprintfsmall.o [40]
MACSEQ_AckSentEvent     0x0001325d     0xe  Code  Gb  phy-common.o [46]
MACSEQ_DataIndicationEvent
                        0x0001326b    0xfc  Code  Gb  phy-common.o [46]
MACSEQ_FrameErrorEvent  0x00013391     0x2  Code  Gb  phy-common.o [46]
MACSEQ_GetNewBufferEvent
                        0x000131f9    0x1c  Code  Gb  phy-common.o [46]
MACSEQ_LBTFailureEvent  0x000133cb    0x10  Code  Gb  phy-common.o [46]
MACSEQ_LBTPausedEvent   0x000133db     0x2  Code  Gb  phy-common.o [46]
MACSEQ_LBTRetryEvent    0x000133dd    0x12  Code  Gb  phy-common.o [46]
MACSEQ_ProtocolTimerEvent
                        0x0001339d    0x2e  Code  Gb  phy-common.o [46]
MACSEQ_RxAbortedEvent   0x00013393     0x2  Code  Gb  phy-common.o [46]
MACSEQ_RxFrameDetected  0x000133ef    0x16  Code  Gb  phy-common.o [46]
MACSEQ_TOUT0MatchLBTEvent
                        0x00013395     0x8  Code  Gb  phy-common.o [46]
MACSEQ_TransmitDoneEvent
                        0x0001321d    0x38  Code  Gb  phy-common.o [46]
MACSEQ_TransmitErrorEvent
                        0x00013367    0x2a  Code  Gb  phy-common.o [46]
MODEM_IRQCallback       0x000248a1    0x40  Code  Lc  ieee802154_phy.o [46]
MODEM_IRQHandler        0x00024f8d     0x8  Code  Gb  radio.o [46]
MPU_ConfigureRegion     0x0002eca5    0x50  Code  Gb  em_mpu.o [17]
MPU_Disable             0x0002a079    0x14  Code  Lc  mpu.o [20]
MSC_Deinit              0x0002f601    0x10  Code  Gb  em_msc.o [17]
MSC_ErasePage           0x200060c9    0x5a  Code  Gb  em_msc.o [17]
MSC_IRQHandler          0x000322b5          Code  Wk  isr-stubs.o [20]
MSC_Init                0x0002f5ed    0x14  Code  Gb  em_msc.o [17]
MSC_LoadVerifyAddress   0x20005f95    0x32  Code  Gb  em_msc.o [17]
MSC_LoadWriteData       0x20005fc7    0x84  Code  Gb  em_msc.o [17]
MSC_MassErase           0x20006139    0x24  Code  Gb  em_msc.o [17]
MSC_WriteWord           0x20006135     0x4  Code  Gb  em_msc.o [17]
MSC_WriteWordI          0x2000604b    0x7e  Code  Gb  em_msc.o [17]
NVIC_ClearPendingIRQ    0x0000578f     0xe  Code  Lc  com.o [31]
NVIC_ClearPendingIRQ    0x0001bde5     0xa  Code  Lc  gpiointerrupt.o [16]
NVIC_ClearPendingIRQ    0x00029461    0x14  Code  Lc  rtcdriver.o [16]
NVIC_ClearPendingIRQ    0x00027d75    0x14  Code  Lc  tempdrv.o [16]
NVIC_ClearPendingIRQ    0x00029ebd    0x12  Code  Lc  ustimer.o [16]
NVIC_ClearPendingIRQ    0x00012b27     0xc  Code  Lc  phy-common.o [46]
NVIC_ClearPendingIRQ    0x000241e1    0x14  Code  Lc  ieee802154_phy.o [46]
NVIC_ClearPendingIRQ    0x0002f455    0x14  Code  Lc  protimer.o [46]
NVIC_DisableIRQ         0x0000577b     0xc  Code  Lc  com.o [31]
NVIC_DisableIRQ         0x00012b19     0xe  Code  Lc  phy-common.o [46]
NVIC_EnableIRQ          0x0000576d     0xe  Code  Lc  com.o [31]
NVIC_EnableIRQ          0x0001bdd9     0xc  Code  Lc  gpiointerrupt.o [16]
PA_0dbmConfigSet        0x00027333    0x38  Code  Gb  pa.o [46]
PA_20dbmConfigSet       0x000272fd    0x36  Code  Gb  pa.o [46]
PA_BandSelect           0x00027721    0x40  Code  Gb  pa.o [46]
PA_BatHighRun           0x000275f9    0x26  Code  Gb  pa.o [46]
PA_CTuneSet             0x00027711    0x10  Code  Gb  pa.o [46]
PA_OutputPowerSet       0x000272d7    0x10  Code  Gb  pa.o [46]
PA_PeakDetectorHighRun  0x000275a7    0x3e  Code  Gb  pa.o [46]
PA_PeakDetectorLowRun   0x000275e5    0x14  Code  Gb  pa.o [46]
PA_PowerFromStripesAndSlicesCommonCalc
                        0x0002745b    0x36  Code  Gb  pa.o [46]
PA_PowerLevelOptimize   0x00027491    0x50  Code  Gb  pa.o [46]
PA_PowerModeConfigSet   0x000272e7    0x16  Code  Gb  pa.o [46]
PA_RampConfigSet        0x000276b9    0x18  Code  Gb  pa.o [46]
PA_RampTimeCalc         0x000276d1    0x40  Code  Gb  pa.o [46]
PA_RampTimeGet          0x0002761f     0x6  Code  Gb  pa.o [46]
PA_RampTimeSet          0x00027625    0x94  Code  Gb  pa.o [46]
PA_StripesAndSlicesCalc
                        0x000274e1    0x7a  Code  Gb  pa.o [46]
PA_StripesAndSlicesCommonCalc
                        0x0002740f    0x4c  Code  Gb  pa.o [46]
PA_StripesAndSlicesSet  0x00027389    0x86  Code  Gb  pa.o [46]
PA_SubGhz20dbmConfigSet
                        0x0002736b    0x1e  Code  Gb  pa.o [46]
PCNT0_IRQHandler        0x000322b5          Code  Wk  isr-stubs.o [20]
PHY_UTILS_DelayUs       0x0002dfed    0x2a  Code  Gb  phy_utils.o [46]
PROTIMER_DelayUs        0x0002f57d    0x3e  Code  Gb  protimer.o [46]
PROTIMER_ElapsedTime    0x0002f507    0x10  Code  Gb  protimer.o [46]
PROTIMER_IRQCallback    0x00024901    0x90  Code  Lc  ieee802154_phy.o [46]
PROTIMER_IRQHandler     0x00024f7d     0x8  Code  Gb  radio.o [46]
PROTIMER_Init           0x0002f477    0x48  Code  Gb  protimer.o [46]
PROTIMER_IsRunning      0x0002f4f5     0x6  Code  Gb  protimer.o [46]
PROTIMER_Reset          0x0002f4fb     0xc  Code  Gb  protimer.o [46]
PROTIMER_Start          0x0002f4bf    0x1a  Code  Gb  protimer.o [46]
PROTIMER_Stop           0x0002f4d9    0x18  Code  Gb  protimer.o [46]
PROTIMER_UsToPrecntOverflow
                        0x0002f51d    0x58  Code  Gb  protimer.o [46]
PTR_CACHE_SIZE          0x00033d9c     0x2  Data  Gb  sim-eeprom.o [32]
PhyConfig               0x20007be0    0x3c  Data  Gb  ieee802154_phy.o [46]
RAC_RSM_IRQCallback     0x00024851    0x50  Code  Lc  ieee802154_phy.o [46]
RAC_RSM_IRQHandler      0x00024f69     0x2  Code  Gb  radio.o [46]
RAC_SEQ_IRQHandler      0x00024f6b     0x2  Code  Gb  radio.o [46]
RADIOCMU_ClockEnable    0x0002dea1    0x2c  Code  Gb  radio_cmu.o [46]
RADIOCMU_ClockFreqGet   0x0002decd    0x70  Code  Gb  radio_cmu.o [46]
RADIOCMU_ClockPrescGet  0x0002df3d    0x16  Code  Gb  radio_cmu.o [46]
RADIO_AndSync           0x0002521b     0x8  Code  Lc  radio.o [46]
RADIO_BUFCBytesAvailable
                        0x00024fb5    0x12  Code  Gb  radio.o [46]
RADIO_BUFCClear         0x00024cd1    0x18  Code  Lc  radio.o [46]
RADIO_BUFCConfig        0x00024f95    0x20  Code  Gb  radio.o [46]
RADIO_BUFCIrqHandler    0x00025021    0x82  Code  Lc  radio.o [46]
RADIO_BUFCReadContASync
                        0x000251e1    0x1c  Code  Gb  radio.o [46]
RADIO_BUFCWriteContASync
                        0x00024cb5    0x1c  Code  Lc  radio.o [46]
RADIO_BUFCWriteContSync
                        0x00024c97    0x10  Code  Lc  radio.o [46]
RADIO_CLKEnable         0x00024eb9    0x56  Code  Gb  radio.o [46]
RADIO_ClearDisableIRQ   0x00012b65    0x10  Code  Lc  phy-common.o [46]
RADIO_ClearDisableIRQ   0x00024241    0x14  Code  Lc  ieee802154_phy.o [46]
RADIO_ClearEnableIRQ    0x00012b49    0x1c  Code  Lc  phy-common.o [46]
RADIO_ClearEnableIRQ    0x0002422b    0x16  Code  Lc  ieee802154_phy.o [46]
RADIO_ClrBitSync        0x00025207     0x4  Code  Lc  radio.o [46]
RADIO_Config            0x00024f0f    0x44  Code  Gb  radio.o [46]
RADIO_Delay             0x0002523b     0x6  Code  Lc  radio.o [46]
RADIO_FRCCleanEnableInt
                        0x00024275     0xe  Code  Lc  ieee802154_phy.o [46]
RADIO_FRCErrorHandle    0x000251fd     0x2  Code  Gb  radio.o [46]
RADIO_FrameControlDescrBufferIdSet
                        0x00025195    0x16  Code  Gb  radio.o [46]
RADIO_FrameControlDescrConfigSet
                        0x000251b1    0x30  Code  Gb  radio.o [46]
RADIO_GetRSSI           0x000252f1    0x32  Code  Gb  radio.o [46]
RADIO_Init              0x00024d61   0x102  Code  Gb  radio.o [46]
RADIO_MODEMRxFrameDetectDisable
                        0x00024287     0x2  Code  Lc  ieee802154_phy.o [46]
RADIO_MODEMRxFrameDetectEnable
                        0x00024283     0x4  Code  Lc  ieee802154_phy.o [46]
RADIO_OrSync            0x0002520b     0x8  Code  Lc  radio.o [46]
RADIO_PA_Init           0x00027255    0x82  Code  Gb  pa.o [46]
RADIO_PTI_AuxdataOutput
                        0x0002558d     0xe  Code  Gb  pti.o [46]
RADIO_PTI_Disable       0x00025575     0xc  Code  Gb  pti.o [46]
RADIO_PTI_Enable        0x0002553b    0x3a  Code  Gb  pti.o [46]
RADIO_PTI_Init          0x000254ad    0x8e  Code  Gb  pti.o [46]
RADIO_RACGetRxState     0x00024ce9     0xe  Code  Lc  radio.o [46]
RADIO_RACStateGet       0x00024267     0xe  Code  Lc  ieee802154_phy.o [46]
RADIO_RACStateGet       0x00024cf7     0xe  Code  Lc  radio.o [46]
RADIO_RACStateGet       0x0002da9d     0xc  Code  Lc  synth.o [46]
RADIO_RACTxEnable       0x0002425d     0xa  Code  Lc  ieee802154_phy.o [46]
RADIO_RegisterIrqCallback
                        0x00024f53     0x6  Code  Gb  radio.o [46]
RADIO_RxBufferBytesAvailable
                        0x00025189     0x4  Code  Gb  radio.o [46]
RADIO_RxBufferFinalizeAndGet
                        0x000250e3    0x3c  Code  Gb  radio.o [46]
RADIO_RxBufferGet       0x000250c3     0x8  Code  Gb  radio.o [46]
RADIO_RxBufferPacketAvailable
                        0x00025157    0x12  Code  Gb  radio.o [46]
RADIO_RxBufferReadByte  0x0002518d     0x8  Code  Gb  radio.o [46]
RADIO_RxBufferReset     0x000250cb    0x18  Code  Gb  radio.o [46]
RADIO_RxBufferSet       0x000250a7    0x16  Code  Gb  radio.o [46]
RADIO_RxFrameToTxTimeSet
                        0x00025295     0xc  Code  Gb  radio.o [46]
RADIO_RxLengthReadNext  0x00025169    0x20  Code  Gb  radio.o [46]
RADIO_RxSearchTimeSet   0x000252d9     0xc  Code  Gb  radio.o [46]
RADIO_RxToTxTimeSet     0x00025277     0xa  Code  Gb  radio.o [46]
RADIO_RxTrailDataLength
                        0x0002511f    0x38  Code  Gb  radio.o [46]
RADIO_RxWarmTimeGet     0x000252d3     0x6  Code  Gb  radio.o [46]
RADIO_RxWarmTimeSet     0x000252c1    0x12  Code  Gb  radio.o [46]
RADIO_SeqInit           0x00024e63    0x56  Code  Gb  radio.o [46]
RADIO_SetAndForgetWrite
                        0x00024d05    0x5c  Code  Gb  radio.o [46]
RADIO_SetBitSync        0x00025203     0x4  Code  Lc  radio.o [46]
RADIO_TxBufferReset     0x00024fc7     0x8  Code  Gb  radio.o [46]
RADIO_TxBufferSet       0x00024fcf    0x50  Code  Gb  radio.o [46]
RADIO_TxToRxSearchTimeSet
                        0x000252e5     0xc  Code  Gb  radio.o [46]
RADIO_TxToRxTimeSet     0x000252b3     0xe  Code  Gb  radio.o [46]
RADIO_TxToTxTimeSet     0x000252a7     0xc  Code  Gb  radio.o [46]
RADIO_TxWarmTimeSet     0x0002526b     0xc  Code  Gb  radio.o [46]
RADIO_UsToStimerTickCalc
                        0x00025241    0x2a  Code  Lc  radio.o [46]
RADIO_WaitForSetSync    0x00025223    0x18  Code  Lc  radio.o [46]
RADIO_WriteContASync    0x00024c91     0x6  Code  Lc  radio.o [46]
RADIO_WriteContSync     0x00024c7f    0x12  Code  Lc  radio.o [46]
RADIO_WriteSync         0x000251ff     0x4  Code  Lc  radio.o [46]
RADIO_XorSync           0x00025213     0x8  Code  Lc  radio.o [46]
RADIO_rxBuffer          0x20007c84   0x100  Data  Gb  radio.o [46]
RADIO_rxLengthBuffer    0x20007e84    0x40  Data  Lc  radio.o [46]
RADIO_txBuffer          0x20007d84   0x100  Data  Lc  radio.o [46]
REAL_PAGES_PER_VIRTUAL  0x00033d8c     0x1  Data  Gb  sim-eeprom.o [32]
REAL_PAGE_SIZE          0x00033d8e     0x2  Data  Gb  sim-eeprom.o [32]
RESETINFO$$Base         0x20000000           --   Gb  - Linker created -
RESETINFO$$Limit        0x2000009c           --   Gb  - Linker created -
RFRAND_GetRadioEntropy  0x000270c7    0xee  Code  Gb  rf_rand.o [46]
RFRAND_SeedProtimerRandom
                        0x000271b5    0x30  Code  Gb  rf_rand.o [46]
RFSENSE_IRQHandler      0x000322b5          Code  Wk  isr-stubs.o [20]
RFTEST_BerEmptyBufcAndUpdateStats
                        0x0002df65    0x74  Code  Gb  rf_test.o [46]
RIGHT_BASE              0x00033d94     0x2  Data  Gb  sim-eeprom.o [32]
RIGHT_TOP               0x00033d96     0x2  Data  Gb  sim-eeprom.o [32]
RMU_ResetCauseClear     0x00026973     0x8  Code  Gb  em_rmu.o [17]
RMU_ResetCauseGet       0x0002697b    0x4e  Code  Gb  em_rmu.o [17]
RMU_ResetControl        0x00026959    0x1a  Code  Gb  em_rmu.o [17]
RTCC_ChannelCCVGet      0x0002949d     0xc  Code  Lc  rtcdriver.o [16]
RTCC_ChannelCCVSet      0x000294a9     0xc  Code  Lc  rtcdriver.o [16]
RTCC_ChannelInit        0x0002eb45    0x2e  Code  Gb  em_rtcc.o [17]
RTCC_IRQHandler         0x000297c3    0x5c  Code  Gb  rtcdriver.o [16]
RTCC_Init               0x0002eb73    0x38  Code  Gb  em_rtcc.o [17]
RTCC_IntDisable         0x000294b5     0xe  Code  Lc  rtcdriver.o [16]
RTCC_IntEnable          0x000294c3     0xc  Code  Lc  rtcdriver.o [16]
RTCDRV_AllocateTimer    0x000294cf    0x44  Code  Gb  rtcdriver.o [16]
RTCDRV_GetWallClockTicks64
                        0x00029785    0x1a  Code  Gb  rtcdriver.o [16]
RTCDRV_Init             0x00029513    0x84  Code  Gb  rtcdriver.o [16]
RTCDRV_StartTimer       0x00029597   0x156  Code  Gb  rtcdriver.o [16]
RTCDRV_TicksToMsec      0x0002979f    0x12  Code  Gb  rtcdriver.o [16]
RTCDRV_TimeRemaining    0x000296ff    0x86  Code  Gb  rtcdriver.o [16]
ReadCommand             0x000281bd    0x4e  Code  Gb  B2Bprotocol.o [2]
ReadSensor              0x0002815b    0x62  Code  Gb  B2Bprotocol.o [2]
ReceiveDmaComplete      0x0000795d    0xd2  Code  Lc  uartdrv.o [16]
Region$$Table$$Base     0x00000000           --   Gb  - Linker created -
Region$$Table$$Limit    0x00000000           --   Gb  - Linker created -
SIMEE$$Base             0x0003e000           --   Gb  - Linker created -
SIMEE$$Limit            0x00040000           --   Gb  - Linker created -
SYNTH_ChannelSet        0x0002dc41    0x22  Code  Gb  synth.o [46]
SYNTH_Config            0x0002db77    0xbc  Code  Gb  synth.o [46]
SYNTH_DCDCRetimeEnable  0x0002dd03     0xc  Code  Gb  synth.o [46]
SYNTH_IRQHandler        0x000322b5          Code  Wk  isr-stubs.o [20]
SYNTH_IfFreqCompute     0x0002daaf    0x56  Code  Gb  synth.o [46]
SYNTH_Is2p4GHz          0x0002db27    0x10  Code  Gb  synth.o [46]
SYNTH_LoDivGet          0x0002db05    0x22  Code  Gb  synth.o [46]
SYNTH_RetimeClkConfig   0x0002dc63    0x6a  Code  Gb  synth.o [46]
SYNTH_RetimeLimitsConfig
                        0x0002dccd    0x36  Code  Gb  synth.o [46]
SYNTH_RfFreqGet         0x0002daa9     0x6  Code  Gb  synth.o [46]
SYNTH_VcoRangeIsValid   0x0002db37    0x40  Code  Gb  synth.o [46]
SYSTEM_ChipRevisionGet  0x0002de6d    0x34  Code  Gb  em_system.o [17]
SetHandleIndex          0x00008041    0x38  Code  Lc  uartdrv.o [16]
SetupGpioUart           0x00007ab3   0x4c4  Code  Lc  uartdrv.o [16]
StartReceiveDma         0x000078d1    0x44  Code  Lc  uartdrv.o [16]
StartTransfer           0x0001bc53   0x134  Code  Lc  dmadrv.o [16]
StartTransmitDma        0x00007915    0x48  Code  Lc  uartdrv.o [16]
SystemCoreClock         0x20006efc     0x4  Data  Gb  system_efr32mg1p.o [17]
SystemCoreClockGet      0x00028b41    0x1a  Code  Gb  system_efr32mg1p.o [17]
SystemHFClockGet        0x00028b5f    0x36  Code  Gb  system_efr32mg1p.o [17]
SystemHFXOClock         0x20006374     0x4  Data  Lc  system_efr32mg1p.o [17]
SystemHFXOClockGet      0x00028b95     0x6  Code  Gb  system_efr32mg1p.o [17]
SystemHFXOClockSet      0x00028b9b    0x16  Code  Gb  system_efr32mg1p.o [17]
SystemHfrcoFreq         0x2000637c     0x4  Data  Gb  system_efr32mg1p.o [17]
SystemInit              0x00028bb1     0xc  Code  Gb  system_efr32mg1p.o [17]
SystemLFRCOClockGet     0x00028bbd     0x6  Code  Gb  system_efr32mg1p.o [17]
SystemLFXOClock         0x20006378     0x4  Data  Lc  system_efr32mg1p.o [17]
SystemLFXOClockGet      0x00028bc9     0x6  Code  Gb  system_efr32mg1p.o [17]
SystemMaxCoreClockGet   0x00028b5b     0x4  Code  Gb  system_efr32mg1p.o [17]
SystemULFRCOClockGet    0x00028bc3     0x6  Code  Gb  system_efr32mg1p.o [17]
TEMPCAL_Init            0x00027205    0x30  Code  Gb  tempcal.o [46]
TEMPCAL_Perform         0x00027235    0x14  Code  Gb  tempcal.o [46]
TEMPDRV_GetTemp         0x0002800d    0x1a  Code  Gb  tempdrv.o [16]
TEMPDRV_IRQHandler      0x00027da5    0x58  Code  Gb  tempdrv.o [16]
TEMPDRV_Init            0x00027f4d    0xc0  Code  Gb  tempdrv.o [16]
TEMPDRV_InitState       0x20007fc6     0x1  Data  Lc  tempdrv.o [16]
TIMER0_IRQHandler       0x00029fe1    0x1a  Code  Gb  ustimer.o [16]
TIMER1_IRQHandler       0x000322b5          Code  Wk  isr-stubs.o [20]
TIMER_Init              0x0002ebb5    0x8e  Code  Gb  em_timer.o [17]
TIMER_InitCC            0x0002ec43    0x60  Code  Gb  em_timer.o [17]
TIMER_IntClear          0x00029ecf     0x4  Code  Lc  ustimer.o [16]
TIMER_IntDisable        0x00029ed3     0xa  Code  Lc  ustimer.o [16]
TOKEN_IP_STACK_ACTIVE_OPERATIONAL_DATASET_DEFAULTS
                        0x00034008   0x100  Data  Gb  token-def.o [20]
TOKEN_IP_STACK_MAC_EXTENDED_ID_DEFAULTS
                        0x00033f3c     0x8  Data  Gb  token-def.o [20]
TOKEN_IP_STACK_MESH_LOCAL_INTERFACE_ID_DEFAULTS
                        0x00033f34     0x8  Data  Gb  token-def.o [20]
TOKEN_IP_STACK_MULTICAST_SEQUENCE_DEFAULTS
                        0x00033f2c     0x4  Data  Gb  token-def.o [20]
TOKEN_IP_STACK_NODE_DATA_DEFAULTS
                        0x00034210     0x4  Data  Gb  token-def.o [20]
TOKEN_IP_STACK_OLD_ACTIVE_OPERATIONAL_DATASET_DEFAULTS
                        0x00033f4c    0xbc  Data  Gb  token-def.o [20]
TOKEN_IP_STACK_OPERATIONAL_DATASET_TAIL_DEFAULTS
                        0x00034208     0x8  Data  Gb  token-def.o [20]
TOKEN_IP_STACK_PARENT_LONG_ID_DEFAULTS
                        0x00033f44     0x8  Data  Gb  token-def.o [20]
TOKEN_IP_STACK_PENDING_OPERATIONAL_DATASET_DEFAULTS
                        0x00034108   0x100  Data  Gb  token-def.o [20]
TOKEN_IP_STACK_SECURITY_SEQUENCE_DEFAULTS
                        0x00033f30     0x4  Data  Gb  token-def.o [20]
TOKEN_MFG_CCA_THRESHOLD
                        0x000358e6     0x2  Data  Gb  mfg-token.o [20]
TOKEN_MFG_CTUNE         0x000358e8     0x2  Data  Gb  mfg-token.o [20]
TOKEN_MFG_EUI_64        0x000358ea     0x2  Data  Gb  mfg-token.o [20]
TOKEN_MFG_SYNTH_FREQ_OFFSET
                        0x000358e4     0x2  Data  Gb  mfg-token.o [20]
TOKEN_STACK_BOOT_COUNTER_DEFAULTS
                        0x00033f24     0x4  Data  Gb  token-def.o [20]
TOKEN_STACK_NONCE_COUNTER_DEFAULTS
                        0x00033f28     0x4  Data  Gb  token-def.o [20]
TOKEN_STACK_NVDATA_VERSION_DEFAULTS
                        0x00033f20     0x2  Data  Gb  token-def.o [20]
TransmitDmaComplete     0x00007a3d    0x4e  Code  Lc  uartdrv.o [16]
TxMsg                   0x2000769c    0x34  Data  Gb  phy-common.o [46]
UARTDRV_FlowControlGetSelfStatus
                        0x000083d5     0x4  Code  Gb  uartdrv.o [16]
UARTDRV_FlowControlSet  0x00008385    0x1c  Code  Gb  uartdrv.o [16]
UARTDRV_FlowControlSetPeerStatus
                        0x000083a1    0x30  Code  Gb  uartdrv.o [16]
UARTDRV_ForceTransmit   0x000083d9    0xe8  Code  Gb  uartdrv.o [16]
UARTDRV_GetPeripheralStatus
                        0x00008295    0x50  Code  Gb  uartdrv.o [16]
UARTDRV_GetReceiveDepth
                        0x000082e5     0x4  Code  Gb  uartdrv.o [16]
UARTDRV_GetReceiveStatus
                        0x000082e9    0x3c  Code  Gb  uartdrv.o [16]
UARTDRV_GetTransmitDepth
                        0x00008325     0x2  Code  Gb  uartdrv.o [16]
UARTDRV_GetTransmitStatus
                        0x0000832d    0x3a  Code  Gb  uartdrv.o [16]
UARTDRV_InitUart        0x000080f9   0x156  Code  Gb  uartdrv.o [16]
UARTDRV_PauseTransmit   0x000084c1    0x34  Code  Gb  uartdrv.o [16]
UARTDRV_Receive         0x00008503    0x34  Code  Gb  uartdrv.o [16]
UARTDRV_ResumeTransmit  0x00008565    0x40  Code  Gb  uartdrv.o [16]
UARTDRV_Transmit        0x000085b9    0x3a  Code  Gb  uartdrv.o [16]
USART0_RX_IRQHandler    0x000059cb    0x1c  Code  Gb  com.o [31]
USART0_TX_IRQHandler    0x000322b5          Code  Wk  isr-stubs.o [20]
USART1_RX_IRQHandler    0x000322b5          Code  Wk  isr-stubs.o [20]
USART1_TX_IRQHandler    0x000322b5          Code  Wk  isr-stubs.o [20]
USART_BaudrateAsyncSet  0x000074e1    0x58  Code  Gb  em_usart.o [17]
USART_Enable            0x00007539     0xe  Code  Gb  em_usart.o [17]
USART_InitAsync         0x00007547    0x40  Code  Gb  em_usart.o [17]
USART_IntClear          0x000057b9     0x4  Code  Lc  com.o [31]
USART_IntDisable        0x000057bd     0xa  Code  Lc  com.o [31]
USART_IntEnable         0x000057c7     0x8  Code  Lc  com.o [31]
USART_Reset             0x000075ad    0x42  Code  Gb  em_usart.o [17]
USART_Rx                0x0000760d     0x8  Code  Gb  em_usart.o [17]
USTIMER_DelayIntSafe    0x00029f8d    0x30  Code  Gb  ustimer.o [16]
USTIMER_Init            0x00029edd    0xb0  Code  Gb  ustimer.o [16]
WDOG_IRQHandler         0x0001bfdf    0x14  Code  Gb  micro-common.o [20]
WDOGn_Feed              0x0002a061    0x18  Code  Gb  em_wdog.o [17]
_GetN                   0x0002fda1    0x22  Code  Lc  xscanffull.o [40]
_GetfldFull             0x0002ff6f   0x10a  Code  Lc  xscanffull.o [40]
_GetfloatFull           0x0003043d   0x4ca  Code  Lc  xscanffull.o [40]
_GetintFull             0x00030241   0x1f6  Code  Lc  xscanffull.o [40]
_GetstrFull             0x00030079   0x1c2  Code  Lc  xscanffull.o [40]
_LitobSmall             0x0002fc9d    0xce  Code  Lc  xprintfsmall.o [40]
_PrintfSmall            0x0002f8c9   0x382  Code  Gb  xprintfsmall.o [40]
_PutcharsSmall          0x0002fd6b    0x2e  Code  Lc  xprintfsmall.o [40]
_Rand_idx               0x20006670     0x4  Data  Lc  rand.o [40]
_Rand_rv                0x20006674    0x80  Data  Lc  rand.o [40]
_Randinit               0x20006668     0x1  Data  Gb  rand.o [40]
_Randseed               0x2000666c     0x4  Data  Gb  rand.o [40]
_SProut                 0x00004623     0xa  Code  Gb  xsprout.o [40]
_SScin                  0x000047cf    0x1e  Code  Gb  xsscin.o [40]
_ScanfFull              0x0002fddd   0x192  Code  Gb  xscanffull.o [40]
_Stoflt                 0x00031265   0x1b4  Code  Gb  xstoflt.o [40]
_Stopfx                 0x00031135   0x130  Code  Gb  xstopfx.o [40]
_Stoxflt                0x0003152d   0x1cc  Code  Gb  xstoxflt.o [40]
_UngetN                 0x0002fdc3    0x1a  Code  Lc  xscanffull.o [40]
__DLIB_PERTHREAD_init$$Base
                        0x00035df0           --   Gb  - Linker created -
__DLIB_PERTHREAD_init$$Length
                        0x00000090           --   Gb  - Linker created -
__DLIB_PERTHREAD_init$$Limit
                        0x00035e80           --   Gb  - Linker created -
__aeabi_cdcmpeq         0x00004901          Code  Gb  DblCmpEq.o [42]
__aeabi_d2f             0x000310a5          Code  Gb  DblToFlt.o [42]
__aeabi_dadd            0x00031445          Code  Gb  DblAdd.o [42]
__aeabi_ddiv            0x00004979          Code  Gb  DblDiv.o [42]
__aeabi_dmul            0x0000462d          Code  Gb  DblMul.o [42]
__aeabi_errno_addr      0x00004bc1     0x6  Code  Gb  errno.o [40]
__aeabi_i2d             0x00031419          Code  Gb  I32ToDbl.o [42]
__aeabi_ldiv0           0x0002f5e9          Code  Gb  I64DivZer.o [44]
__aeabi_ldivmod         0x0002e019          Code  Gb  I64DivMod.o [44]
__aeabi_memclr          0x0002369d          Code  Gb  ABImemclr.o [44]
__aeabi_memclr4         0x00007435          Code  Gb  ABImemclr4.o [44]
__aeabi_memset          0x00008c39          Code  Gb  ABImemset.o [44]
__aeabi_uldivmod        0x0002e05d          Code  Gb  I64DivMod.o [44]
__iar_Dnorm             0x000045e1    0x42  Code  Gb  xdnorm.o [42]
__iar_Dscale            0x000047ed   0x114  Code  Gb  xdscale.o [42]
__iar_Dtentox           0x0000443d   0x13e  Code  Gb  xdtento.o [42]
__iar_Dunscale          0x00004921    0x56  Code  Gb  xdunscal.o [42]
__iar_Errno             0x200066f4     0x4  Data  Gb  errno.o [40]
__iar_Memchr            0x00025c3d          Code  Gb  memchr.o [44]
__iar_Memset            0x00008c39          Code  Gb  ABImemset.o [44]
__iar_Memset4_word      0x0001b215          Code  Gb  ABImemset48.o [44]
__iar_Memset8_word      0x0001b215          Code  Gb  ABImemset48.o [44]
__iar_Memset_word       0x00008c41          Code  Gb  ABImemset.o [44]
__iar_Stold             0x000310a1     0x4  Code  Gb  xstold.o [42]
__iar_Stoldx            0x00030f3d   0x14e  Code  Gb  xstold.o [42]
__iar_Stoll             0x00030d85     0x4  Code  Gb  xstoll.o [40]
__iar_Stollx            0x00030ce7    0x9e  Code  Gb  xstoll.o [40]
__iar_Stoul             0x0002e89d     0x4  Code  Gb  xstoul.o [40]
__iar_Stoull            0x00030ee9     0x4  Code  Gb  xstoull.o [40]
__iar_Stoullx           0x00030d89   0x15a  Code  Gb  xstoull.o [40]
__iar_Stoulx            0x0002e755   0x142  Code  Gb  xstoul.o [40]
__iar_Strchr            0x00030cd1          Code  Gb  strchr.o [44]
__iar_Strrchr           0x00007451    0x18  Code  Gb  strrchr.o [40]
__iar_dadd              0x00031459          Code  Gb  DblAdd.o [42]
__iar_dlib_perthread_access
                        0x00004bcd     0x2  Code  Gb  xtls.o [40]
__iar_dsub              0x0003172d          Code  Gb  DblSub.o [42]
__iar_dsubStart         0x0003173f          Code  Gb  DblSub.o [42]
__iar_init_vfp          0x00032d71          Code  Gb  fpinit_M.o [42]
__iar_strcmp            0x0001c27d          Code  Gb  strcmp_unaligned.o [44]
__iar_ui2d              0x0003142d          Code  Gb  I32ToDbl.o [42]
__iar_unaligned___aeabi_memcpy
                        0x00007469          Code  Gb  ABImemcpy_unaligned.o [44]
__iar_unaligned___aeabi_memcpy4
                        0x00007489          Code  Gb  ABImemcpy_unaligned.o [44]
__iar_unaligned___aeabi_memcpy8
                        0x00007489          Code  Gb  ABImemcpy_unaligned.o [44]
__iar_unaligned_memcmp  0x0002044d          Code  Gb  memcmp_unaligned.o [44]
__iar_unaligned_strcmp  0x0001c27d          Code  Gb  strcmp_unaligned.o [44]
__iar_unaligned_strcpy  0x0002e5b5          Code  Gb  strcpy_unaligned.o [44]
__vector_table          0x00004100    0xe0  Data  Gb  cstartup-common.o [20]
_clearPriMask           0x0001bebd     0x4  Code  Gb  register-access.o [41]
_disableBasePri         0x0001beab     0xe  Code  Gb  register-access.o [41]
_enableBasePri          0x0001bea3     0x2  Code  Gb  register-access.o [41]
_executeBarrierInstructions
                        0x0001bec1     0xe  Code  Gb  register-access.o [41]
_macTransmitBuffer      0x20007f3a    0x80  Data  Gb  mac.o [46]
_setPriMask             0x0001beb9     0x4  Code  Gb  register-access.o [41]
_writeBasePri           0x0001bea1     0x2  Code  Gb  register-access.o [41]
acceptParentRequest     0x20006560     0x1  Data  Lc  mle.o [46]
acceptSolicit           0x20006638     0x1  Data  Lc  dhcp.o [39]
activeDatasetCache      0x20007aac    0x64  Data  Lc  commission-dataset.o [46]
activeKeySequence       0x20007624     0x4  Data  Lc  distributed-key-management.o [46]
activeScanChannelMask   0x20007518     0x4  Data  Lc  commission.o [46]
activeScanHandler       0x00011b49   0x196  Code  Lc  join.o [46]
activeScanPanId         0x20007512     0x2  Data  Lc  commission.o [46]
adcConfig               0x200071ec     0xc  Data  Lc  adc.o [4]
adcInitStart            0x00032601    0x4a  Code  Gb  adc.o [4]
adcPendingConversion    0x200071fa     0x1  Data  Lc  adc.o [4]
adcPendingRequests      0x200071f9     0x1  Data  Lc  adc.o [4]
adcReadingValid         0x200071fb     0x1  Data  Lc  adc.o [4]
adcReadings             0x20007200     0x8  Data  Lc  adc.o [4]
adcUserSel              0x200071fc     0x1  Data  Lc  adc.o [4]
add32                   0x0002d1b1    0x14  Code  Lc  ecp_curves.o [43]
addActiveDatasetTlv     0x0000dabb     0xe  Code  Lc  mle.o [46]
addAddressRegistrationTlv
                        0x0000f07d    0x8c  Code  Lc  mle.o [46]
addCommissioner         0x00014157    0x34  Code  Lc  commission.o [46]
addCookie               0x00021421   0x108  Code  Lc  tls-handshake.o [46]
addDatagramBuffer       0x0000a917    0xfa  Code  Lc  fragment.o [46]
addDelayed              0x0000a46d    0x6e  Code  Lc  retry.o [46]
addDuid                 0x0001ebf1    0x26  Code  Lc  dhcp.o [39]
addInt16uTlv            0x0000d95f     0xc  Code  Lc  mle.o [46]
addInt32uTlv            0x0000d975    0x16  Code  Lc  mle.o [46]
addInt8uTlv             0x0000d957     0x8  Code  Lc  mle.o [46]
addPendingDatasetTlv    0x0000dac9     0xc  Code  Lc  mle.o [46]
addPendingTimestampTlv  0x0000da81    0x10  Code  Lc  mle.o [46]
addPrefixTlv            0x00010ea1    0x4c  Code  Lc  local-server-data.o [46]
addResponseTlv          0x0000da67    0x1a  Code  Lc  mle.o [46]
addServiceTlv           0x00010cc5    0x40  Code  Lc  local-server-data.o [46]
addSourceAddressTlv     0x0000db05    0x14  Code  Lc  mle.o [46]
addStateTlv             0x00013d3b     0xe  Code  Lc  commission.o [46]
addStatusTlv            0x0000f06b    0x12  Code  Lc  mle.o [46]
addToLength             0x000213eb    0x18  Code  Lc  tls-handshake.o [46]
address16Handler        0x00025821    0x10  Code  Lc  coap-diagnostic-stack.o [46]
addressErrorNotificationHandler
                        0x000237e3    0x38  Code  Lc  address-management.o [46]
addressMatchingEnabled  0x2000649f     0x1  Data  Lc  phy-common.o [46]
addressQueryHandler     0x0002370b    0xd8  Code  Lc  address-management.o [46]
addressQueryNotificationHandler
                        0x000236c3    0x48  Code  Lc  address-management.o [46]
addressRegistrationState
                        0x20007fcd     0x1  Data  Lc  global-prefix.o [46]
addressReleaseHandler   0x000238e3    0x26  Code  Lc  address-management.o [46]
addressSolicitHandler   0x0002381b    0xb8  Code  Lc  address-management.o [46]
addressTableSearch      0x0001056d    0x72  Code  Lc  child-data.o [46]
adjustListLocation      0x0000b59b    0x92  Code  Lc  event-queue.o [46]
aesCmac                 0x00022831    0xe4  Code  Lc  thread-key-stretch.o [46]
allowIdling             0x20007fcb     0x1  Data  Lc  event-control.o [46]
amCommissioner          0x200074dd     0x1  Data  Lc  commission.o [46]
amGateway               0x200074de     0x1  Data  Lc  commission.o [46]
amShuffling             0x20007aa9     0x1  Data  Lc  commission-dataset.o [46]
amalgamateQueue         0x20007478     0x4  Data  Lc  buffer-management.o [46]
announceBeginData       0x20007b18     0x8  Data  Lc  commission-dataset.o [46]
announceEvent           0x200065bc     0xc  Data  Lc  commission-dataset.o [46]
announceEventActions    0x0003523c    0x10  Data  Lc  commission-dataset.o [46]
announceEventHandler    0x00015921    0x3a  Code  Lc  commission-dataset.o [46]
apcConfigure            0x0002755b    0x4c  Code  Lc  pa.o [46]
apcEnabled              0x200064a8     0x1  Data  Lc  pa.o [46]
applicationIsInitialized
                        0x20006cae     0x1  Data  Lc  main.o [27]
arePageCountersOkay     0x00025f5f    0x3e  Code  Lc  sim-eeprom-internal.o [45]
asynchronousHeapLimit   0x2000747c     0x4  Data  Lc  buffer-management.o [46]
attachCommand           0x0001a3a9    0x34  Code  Gb  client-implementation.o [1]
attachFailed            0x00012475    0xf2  Code  Lc  join.o [46]
attachToServer          0x0001a355    0x42  Code  Lc  client-implementation.o [1]
autoAckEnabled          0x200064a0     0x1  Data  Lc  phy-common.o [46]
auxHfrcoFreq            0x20006370     0x4  Data  Lc  em_cmu.o [17]
baseHeaderLength        0x0001cd98    0x10  Data  Lc  mac-header-util.o [46]
beaconEvent             0x200065c8     0xc  Data  Lc  association.o [46]
beaconEventActions      0x00035254    0x10  Data  Lc  association.o [46]
beaconEventHandler      0x00026a25    0x38  Code  Lc  association.o [46]
berInfiniteMode         0x20007ed4     0x1  Data  Gb  rf_test.o [46]
berSkipBytesLeft        0x20007ee4     0x4  Data  Gb  rf_test.o [46]
berStats                0x20007ec4    0x10  Data  Gb  rf_test.o [46]
berTotalBits            0x20007edc     0x4  Data  Gb  rf_test.o [46]
berTotalBytesLeft       0x20007ee0     0x4  Data  Gb  rf_test.o [46]
berTotalErrors          0x20007ed8     0x4  Data  Gb  rf_test.o [46]
bitmasks                0x200063e8     0x1  Data  Lc  debug-print.o [13]
blackListTimeoutEvent   0x20006618     0xc  Data  Lc  network-fragmentation.o [46]
blackListTimeoutEventActions
                        0x000352f4    0x10  Data  Lc  network-fragmentation.o [46]
blackListTimeoutEventHandler
                        0x00023599     0x8  Code  Lc  network-fragmentation.o [46]
blackListedIslandId     0x20007bb4     0x8  Data  Lc  network-fragmentation.o [46]
blackListedSequenceNumber
                        0x20007bab     0x1  Data  Lc  network-fragmentation.o [46]
blacklistEventActions   0x0001a0e4    0x10  Data  Lc  rip-neighbor.o [46]
blacklistEventHandler   0x000196c3    0x20  Code  Lc  rip-neighbor.o [46]
blacklistEventMarker    0x000196e3     0x2  Code  Lc  rip-neighbor.o [46]
bootloadAction          0x20006798     0x1  Data  Lc  tftp-bootloader-server.o [35]
bootloadEraseAddress    0x200067a4     0x4  Data  Lc  tftp-bootloader-server.o [35]
borderRouterHandlers    0x00015668    0x48  Data  Lc  commission.o [46]
brCommGetHandler        0x00014d39    0x14  Code  Lc  commission.o [46]
brCommSetHandler        0x00014d4d    0x14  Code  Lc  commission.o [46]
brKeepAliveHandler      0x00014cd5    0x64  Code  Lc  commission.o [46]
brPetitionHandler       0x00014c31    0x96  Code  Lc  commission.o [46]
brRelayTxHandler        0x00014d69    0x62  Code  Lc  commission.o [46]
bufcRxStreaming         0x20007c2c     0x8  Data  Lc  radio.o [46]
bufcTxStreaming         0x20007c34    0x10  Data  Lc  radio.o [46]
buff                    0x20006d98    0x80  Data  Lc  bootloader-interface-app.o [18]
bufferTracker           0x2000745e     0x2  Data  Lc  buffer-management.o [46]
button0State            0x20007fc8     0x1  Data  Gb  button.o [7]
button1State            0x20007fc9     0x1  Data  Gb  button.o [7]
buttonIrqCallback       0x00028d4d    0x5e  Code  Gb  button.o [7]
bytesToString           0x0000532f   0x170  Code  Lc  ip-address.o [46]
calculateMic            0x0000fe15    0x9a  Code  Lc  802-15-4-ccm.o [46]
calibrationEMU          0x200070f8     0x4  Data  Lc  tempdrv.o [16]
calibrationTEMP         0x200070fc     0x4  Data  Lc  tempdrv.o [16]
callCommandAction       0x0002e3cd   0x174  Code  Lc  command-interpreter2.o [12]
callResponseHandler     0x0000b93d    0x44  Code  Lc  coap.o [46]
callbackEnd             0x0001bf23     0x8  Code  Gb  system-timer.o [41]
cancelEvents            0x0000b525    0x10  Code  Lc  event-queue.o [46]
cancelPtaRxRequest      0x000131e5    0x14  Code  Lc  phy-common.o [46]
capabilityBytes         0x0000d7ec     0x8  Data  Lc  mle.o [46]
cfsrBits                0x00020060    0x68  Data  Lc  diagnostic.o [15]
chTable                 0x20006f00    0x80  Data  Lc  dmadrv.o [16]
challenges16u           0x20007a4c    0x10  Data  Lc  mle.o [46]
channelCache            0x20007f31     0x1  Data  Lc  mac-arbiter.o [46]
channelPagesHandler     0x000259d1     0xe  Code  Lc  coap-diagnostic-stack.o [46]
charDowncase            0x0002e3bf     0xe  Code  Lc  command-interpreter2.o [12]
checkAllTimers          0x0002981f    0xbc  Code  Lc  rtcdriver.o [16]
checkForSimEe2DataExistence
                        0x00025f9d    0x5a  Code  Gb  sim-eeprom-internal.o [45]
checkScores             0x00016e49    0xa4  Code  Lc  network-data.o [46]
checksum                0x0002215b    0x68  Code  Lc  transport-header.o [46]
childAgingEvent         0x20006594     0xc  Data  Lc  child-aging.o [46]
childAgingEventActions  0x000351c8    0x10  Data  Lc  child-aging.o [46]
childAgingEventHandler  0x0001d2c3    0xd8  Code  Lc  child-aging.o [46]
childFrameCounters      0x20006908    0x40  Data  Lc  ember-ip-configuration.o [34]
childIdCounter          0x200064f0     0x2  Data  Lc  child-data.o [46]
childIdTable            0x200067dc    0x24  Data  Lc  ember-ip-configuration.o [34]
childIsExpectingMessageBitField
                        0x20007a3c     0x4  Data  Lc  mac-indirect.o [46]
childJitMessage         0x0001c473    0xc6  Code  Lc  jit.o [46]
childLongIdTable        0x20006800    0x88  Data  Lc  ember-ip-configuration.o [34]
childPolledBitField     0x20007a38     0x4  Data  Lc  mac-indirect.o [46]
childSequenceDeltas     0x20006948    0x10  Data  Lc  ember-ip-configuration.o [34]
childStatus             0x200067bc    0x20  Data  Lc  ember-ip-configuration.o [34]
childTableHandler       0x00025995    0x3c  Code  Lc  coap-diagnostic-stack.o [46]
childTimeouts           0x200068c8    0x40  Data  Lc  ember-ip-configuration.o [34]
childTimers             0x20006888    0x40  Data  Lc  ember-ip-configuration.o [34]
childTransactionTimers  0x20006958    0x20  Data  Lc  ember-ip-configuration.o [34]
clearAddressBits        0x000052f1    0x3e  Code  Lc  ip-address.o [46]
clearShortId            0x000137ab    0x20  Code  Lc  address-cache.o [46]
clientReportUri         0x0001ab18    0x10  Data  Lc  client-implementation.o [1]
cmuHfclkStatus          0x20006eec     0x2  Data  Lc  em_emu.o [17]
cmuStatus               0x20006ef0     0x4  Data  Lc  em_emu.o [17]
coapCodeResponseMap     0x0000c324    0xd0  Data  Lc  coap.o [46]
coapCommand             0x0003248d    0x5c  Code  Lc  coap-cli.o [10]
coapContentFormatResponseMap
                        0x0000ba04    0x40  Data  Lc  coap.o [46]
coapDeleteCommand       0x00032581    0x14  Code  Gb  coap-cli.o [10]
coapGetCommand          0x00032527    0x12  Code  Gb  coap-cli.o [10]
coapListenCommand       0x000324e9    0x32  Code  Gb  coap-cli.o [10]
coapPostCommand         0x00032539    0x12  Code  Gb  coap-cli.o [10]
coapPutCommand          0x00032555    0x12  Code  Gb  coap-cli.o [10]
coapRespond             0x0000c14b    0xf2  Code  Lc  coap.o [46]
coapRetryEventHandler   0x0000b98b    0x40  Code  Lc  coap.o [46]
coapRetryEventMarker    0x0000b86d     0x6  Code  Lc  coap.o [46]
com0RxFifoQueue         0x200069bc    0x48  Data  Lc  com.o [31]
com0TxFifoQueue         0x20006a04    0x88  Data  Lc  com.o [31]
com1RxBufferQueue       0x200061a8    0x80  Data  Lc  com.o [31]
com1RxFifoQueue         0x20006a8c    0x88  Data  Lc  com.o [31]
com1TxBufferQueue       0x20006228    0x80  Data  Lc  com.o [31]
com1TxFifoQueue         0x20006b14    0x88  Data  Lc  com.o [31]
comActiveScanParamsInit
                        0x0001454b     0xc  Code  Lc  commission.o [46]
comEnergyScanParamsInit
                        0x0001436d    0x16  Code  Lc  commission.o [46]
comRxBufferQueues       0x200062d8    0x10  Data  Gb  com.o [31]
comRxQueueSize          0x00006054     0x8  Data  Gb  com.o [31]
comRxQueues             0x200062c8    0x10  Data  Gb  com.o [31]
comScanEventActions     0x00034cf4    0x10  Data  Lc  commission.o [46]
comTxBufferQueues       0x200062e8    0x10  Data  Gb  com.o [31]
comTxQueueSize          0x0000604c     0x8  Data  Gb  com.o [31]
comTxQueues             0x200062b8    0x10  Data  Gb  com.o [31]
comhandle               0x200062a8    0x10  Data  Gb  com.o [31]
comhandledata           0x20006c38    0x70  Data  Lc  com.o [31]
commGetDataHandler      0x00014263    0xa0  Code  Lc  commission.o [46]
commSetDataHandler      0x00014319    0x54  Code  Lc  commission.o [46]
commissionKey           0x20007610    0x10  Data  Lc  dtls-join.o [46]
commissionKeyLength     0x2000760a     0x1  Data  Lc  dtls-join.o [46]
commissionerConnectionHandle
                        0x200074df     0x1  Data  Lc  commission.o [46]
commissionerHandlers    0x000156b0    0x30  Data  Lc  commission.o [46]
commissionerPetitionResponseHandler
                        0x00015529    0x54  Code  Lc  commission.o [46]
commissionerTimeoutEvent
                        0x2000641c     0xc  Data  Lc  commission.o [46]
commissionerTimeoutEventActions
                        0x00034cd4    0x10  Data  Lc  commission.o [46]
commissionerTimeoutEventHandler
                        0x00013b8d    0x56  Code  Lc  commission.o [46]
commissionerTimeoutEventMarker
                        0x00013b8b     0x2  Code  Lc  commission.o [46]
commissioningMacKey     0x200075bc    0x10  Data  Lc  join.o [46]
compareLeaderData       0x00016c6f    0x3e  Code  Lc  network-data.o [46]
compareTlvs             0x00017283    0x52  Code  Lc  network-data.o [46]
compressPointer         0x00008ef7    0x12  Code  Lc  buffer-management.o [46]
compressUnicastAddress  0x0001dacb    0xe6  Code  Lc  6lowpan-header.o [46]
connect                 0x00020e85    0x42  Code  Lc  buffer-malloc.o [46]
connectionEvent         0x20006648     0xc  Data  Lc  connection.o [46]
connectionEventActions  0x00035368    0x10  Data  Lc  connection.o [46]
connectionEventHandler  0x0001e527    0xee  Code  Lc  connection.o [46]
connectivityHandler     0x00025869     0xe  Code  Lc  coap-diagnostic-stack.o [46]
convertInternalTo6lowpan
                        0x0001dbbd   0x3d8  Code  Lc  6lowpan-header.o [46]
convertIpv6HeaderToInternal
                        0x0001d5f5   0x436  Code  Lc  6lowpan-header.o [46]
convertUri              0x0001496f    0x14  Code  Lc  commission.o [46]
copyBlock               0x00021403    0x1e  Code  Lc  tls-handshake.o [46]
copyDataset             0x00015b31    0xf0  Code  Lc  commission-dataset.o [46]
copyFragment            0x0000aa11    0xb0  Code  Lc  fragment.o [46]
copyPrefixTlv           0x000172eb    0xd2  Code  Lc  network-data.o [46]
copyTlv                 0x000172d5    0x16  Code  Lc  network-data.o [46]
copyTokensToOtherPage   0x00026397   0x1d0  Code  Lc  sim-eeprom-internal.o [45]
countIncremarks         0x00026785    0x3a  Code  Lc  sim-eeprom-internal.o [45]
crypto_ddata0_is_zero   0x0002ee67    0x16  Code  Lc  sl_ecp.o [43]
cstackMemory            0x20005098   0xed8  Data  Gb  cstartup-common.o [20]
currChSpacing           0x20007ef4     0x4  Data  Gb  synth.o [46]
currIfFrequency         0x20007ef0     0x4  Data  Gb  synth.o [46]
currRfFrequency         0x20007eec     0x4  Data  Gb  synth.o [46]
currentCoapMessage      0x20007788     0x4  Data  Lc  coap.o [46]
currentLimitersUpdate   0x00029009    0x7a  Code  Lc  em_emu.o [17]
currentMaxLength        0x20007bd8     0x2  Data  Lc  ieee802154_phy.o [46]
currentPhyConfig        0x20007bcc     0xc  Data  Gb  ieee802154_phy.o [46]
currentUser             0x200063f4     0x4  Data  Lc  buffer-management.o [46]
currentWrapCntTop       0x20007bdc     0x4  Data  Lc  ieee802154_phy.o [46]
dataState               0x200077a3     0x1  Data  Lc  network-data.o [46]
dcdcEm01LoadCurrent_mA  0x20007f04     0x2  Data  Lc  em_emu.o [17]
dcdcFetCntSet           0x00028e6f    0x20  Code  Lc  em_emu.o [17]
dcdcHsFixLnBlock        0x00028e8f    0x24  Code  Lc  em_emu.o [17]
dcdcMaxCurrent_mA       0x20007f02     0x2  Data  Lc  em_emu.o [17]
dcdcRetimeClkTarget     0x20006658     0x4  Data  Gb  synth.o [46]
dcdcReverseCurrentControl
                        0x20007f06     0x2  Data  Lc  em_emu.o [17]
debugChannel            0x20007ff0    0x10  Data  Lc  debug-jtag.o [46]
debugChannelState       0x20007fcf     0x1  Data  Lc  debug-jtag.o [46]
debugTraceOn            0x20007fce     0x1  Data  Lc  debug.o [46]
decodeDestination       0x00022a09    0x96  Code  Lc  ip-mac-header.o [46]
decodeUri               0x0000c289    0x70  Code  Lc  coap.o [46]
decrementLifetime       0x0001f3ef    0x2a  Code  Lc  dhcp.o [39]
decrypt                 0x00022a9f   0x13a  Code  Lc  ip-mac-header.o [46]
decryptMleMessage       0x0000f391   0x292  Code  Lc  mle.o [46]
delayCount              0x20007aa0     0x1  Data  Lc  retry.o [46]
deleteJoinKeyPair       0x0000c779    0x48  Code  Lc  dtls-join.o [46]
deleteTlv               0x0001638d    0x34  Code  Lc  commission-dataset.o [46]
dequeueFifoBuffer       0x00005b59    0x34  Code  Lc  com.o [31]
deriveKeys              0x0000f999    0x18  Code  Lc  distributed-key-management.o [46]
deriveMleAndMacKeys     0x0000f92f    0x2e  Code  Lc  distributed-key-management.o [46]
detachCommand           0x0001a55d    0x10  Code  Gb  client-implementation.o [1]
detachFromServer        0x0001a523    0x3a  Code  Lc  client-implementation.o [1]
deviceIsCoordinator     0x20007fd3     0x1  Data  Lc  phy-common.o [46]
dheRsaSuiteIdentifier   0x000358ee     0x2  Data  Gb  tls-ccm-record.o [46]
digits                  0x0002e8a0    0x28  Data  Lc  xstoul.o [40]
digits                  0x00030eec    0x28  Data  Lc  xstoull.o [40]
disableInterrupts       0x00027ea1     0xa  Code  Lc  tempdrv.o [16]
discardOuterIpv6Header  0x000183a1    0x6c  Code  Lc  dispatch.o [46]
discoveryEventActions   0x00013968    0x10  Data  Lc  address-cache.o [46]
discoveryEventHandler   0x000137f9    0xa0  Code  Lc  address-cache.o [46]
discoveryEventMarker    0x000135a1     0x2  Code  Lc  address-cache.o [46]
discoveryEventPredicate
                        0x000135a3    0x10  Code  Lc  address-cache.o [46]
dmaXfer                 0x20006f80   0x100  Data  Lc  dmadrv.o [16]
dma_IEN                 0x20006ca8     0x4  Data  Gb  com.o [31]
dmul                    0x000043e1    0x5a  Code  Lc  xdtento.o [42]
dropFlagCount           0x20007b6e     0x2  Data  Lc  ip-mac-receive.o [46]
dropMemoryCount         0x20007b70     0x2  Data  Lc  ip-mac-receive.o [46]
eblConfig               0x20006e18    0xd4  Data  Gb  bootloader-interface-app.o [18]
ecdheEcdsaSuiteIdentifier
                        0x000358f0     0x2  Data  Gb  tls-ccm-record.o [46]
ecjpake_ecp_add3        0x00020af1    0x52  Code  Lc  ecjpake.o [43]
ecjpake_hash            0x000205fd    0xbe  Code  Lc  ecjpake.o [43]
ecjpake_id              0x00020e7c     0x8  Data  Lc  ecjpake.o [43]
ecjpake_kkp_read        0x000208d3    0x56  Code  Lc  ecjpake.o [43]
ecjpake_kkp_write       0x00020929    0x7c  Code  Lc  ecjpake.o [43]
ecjpake_kkpp_read       0x000209a5    0x58  Code  Lc  ecjpake.o [43]
ecjpake_kkpp_write      0x000209fd    0x6e  Code  Lc  ecjpake.o [43]
ecjpake_mul_secret      0x00020beb    0x74  Code  Lc  ecjpake.o [43]
ecjpake_write_len_point
                        0x000205a3    0x5a  Code  Lc  ecjpake.o [43]
ecjpake_zkp_read        0x000206d5    0xe0  Code  Lc  ecjpake.o [43]
ecjpake_zkp_write       0x000207b5   0x11e  Code  Lc  ecjpake.o [43]
ecp_add_mixed           0x0002b27b   0x332  Code  Lc  ecp.o [43]
ecp_check_pubkey_sw     0x0002bbe3   0x102  Code  Lc  ecp.o [43]
ecp_comb_fixed          0x0002b731    0x84  Code  Lc  ecp.o [43]
ecp_crypto_ddata_read   0x0002ef83    0x74  Code  Lc  sl_ecp.o [43]
ecp_crypto_ddata_write  0x0002eeff    0x58  Code  Lc  sl_ecp.o [43]
ecp_device_add_mixed    0x0002f0b3    0xa4  Code  Gb  sl_ecp.o [43]
ecp_device_double_jac   0x0002f001    0xb2  Code  Gb  sl_ecp.o [43]
ecp_device_normalize_jac
                        0x0002f2c1    0x82  Code  Gb  sl_ecp.o [43]
ecp_double_jac          0x0002af11   0x2f2  Code  Lc  ecp.o [43]
ecp_get_type            0x0002a89d    0x14  Code  Lc  ecp.o [43]
ecp_group_load          0x0002d0d5    0x72  Code  Lc  ecp_curves.o [43]
ecp_mod_p256            0x0002d1dd   0x224  Code  Lc  ecp_curves.o [43]
ecp_modp                0x0002abd5    0x88  Code  Lc  ecp.o [43]
ecp_mpi_load            0x0002d0c9     0xc  Code  Lc  ecp_curves.o [43]
ecp_mul_comb            0x0002b9d1   0x1b0  Code  Lc  ecp.o [43]
ecp_mul_comb_core       0x0002b909    0xb8  Code  Lc  ecp.o [43]
ecp_normalize_jac       0x0002ac63    0xa2  Code  Lc  ecp.o [43]
ecp_normalize_jac_many  0x0002ad05   0x1c0  Code  Lc  ecp.o [43]
ecp_precompute_comb     0x0002b7b5    0xea  Code  Lc  ecp.o [43]
ecp_randomize_jac       0x0002b61d    0xea  Code  Lc  ecp.o [43]
ecp_safe_invert_jac     0x0002aed5    0x3c  Code  Lc  ecp.o [43]
ecp_select_comb         0x0002b8a9    0x60  Code  Lc  ecp.o [43]
ecp_supported_curves    0x0002a884    0x18  Data  Lc  ecp.o [43]
edCcaThreshold          0x200064a1     0x1  Data  Lc  phy-common.o [46]
eepromState             0x20006d0c    0x8c  Data  Gb  bootloader-interface-app.o [18]
em4WakeupCause          0x20006cf0     0x4  Data  Lc  sleep-efm32.o [20]
emAcceptUnsecuredFragment
                        0x00011f6b    0x2a  Code  Gb  join.o [46]
emAckHoldOffEnabled     0x200064ac     0x1  Data  Gb  phy.o [46]
emActiveTaskCount       0x20007fcc     0x1  Data  Lc  event-control.o [46]
emAddActiveTimestampTlv
                        0x0000da91     0xe  Code  Gb  mle.o [46]
emAddAddressData        0x00013665    0x90  Code  Gb  address-cache.o [46]
emAddChannelMaskEntry   0x000157e9    0x12  Code  Gb  commission-dataset.o [46]
emAddChannelMaskTlv     0x00015803     0xe  Code  Gb  commission-dataset.o [46]
emAddChannelPagesTlv    0x00015811    0x14  Code  Gb  commission-dataset.o [46]
emAddConnectivityTlv    0x0000d9d7    0x52  Code  Gb  mle.o [46]
emAddDatasetChannelTlv  0x000157c9    0x20  Code  Gb  commission-dataset.o [46]
emAddDhcpClient         0x0000b485    0x78  Code  Gb  dhcp-address-table.o [39]
emAddDhcpHeader         0x0001ec17    0x38  Code  Gb  dhcp.o [39]
emAddDiscoveryResponseTlvs
                        0x00013f71    0xaa  Code  Gb  commission.o [46]
emAddExtendedPanIdTlv   0x00013f2b     0xa  Code  Gb  commission.o [46]
emAddGlobalAddress      0x00007149    0xa8  Code  Gb  global-prefix.o [46]
emAddHmacPadding        0x00022641    0x56  Code  Gb  sha256.o [46]
emAddInt16uTlv          0x00013d01    0x16  Code  Gb  commission.o [46]
emAddInt32uTlv          0x00013d17    0x1a  Code  Gb  commission.o [46]
emAddLeaderData         0x00016749    0x24  Code  Gb  network-data.o [46]
emAddLeaderTlv          0x0000d98b    0x4c  Code  Gb  mle.o [46]
emAddLurkerNeighbor     0x00019377     0x4  Code  Gb  rip-neighbor.o [46]
emAddMarkingFunction    0x0000c6ad    0x66  Code  Gb  mark-list.o [46]
emAddMeshLocalUlaTlv    0x00013f55    0x1c  Code  Gb  commission.o [46]
emAddNeighbor           0x0001932d    0x4a  Code  Gb  rip-neighbor.o [46]
emAddNetworkData        0x0000da51    0x16  Code  Gb  mle.o [46]
emAddNetworkNameTlv     0x00013f35    0x20  Code  Gb  commission.o [46]
emAddParentLink         0x0001298d    0x2a  Code  Gb  join.o [46]
emAddRoute64Tlv         0x0000da29    0x28  Code  Gb  mle.o [46]
emAddSecurityPolicyTlv  0x00015825    0x1a  Code  Gb  commission-dataset.o [46]
emAddSessionIdTlv       0x00013d31     0xa  Code  Gb  commission.o [46]
emAddTlv                0x00013d49    0x1e  Code  Gb  commission.o [46]
emAddToCounter          0x0001e1ef    0x22  Code  Gb  tls-record-util.o [46]
emAddUdpConnection      0x0000b01b    0xb4  Code  Gb  udp.o [46]
emAddUnackedCoapMessage
                        0x0000b8bb    0x72  Code  Gb  coap.o [46]
emAddUnicastTableEntry  0x00010219    0x1a  Code  Gb  unicast-table.o [46]
emAddressCache          0x200064d8     0x8  Data  Gb  address-cache.o [46]
emAddressCacheInit      0x00013785    0x1a  Code  Gb  address-cache.o [46]
emAdvanceFragmentPointer
                        0x0000ae7b    0x2a  Code  Gb  fragment.o [46]
emAesEncrypt            0x00023d33    0x20  Code  Gb  aes.o [46]
emAfInit                0x00019249    0x12  Code  Gb  thread-bookkeeping.o [1]
emAfMain                0x00019245     0x4  Code  Gb  thread-bookkeeping.o [1]
emAfMarkApplicationBuffers
                        0x00019279     0x4  Code  Gb  thread-bookkeeping.o [1]
emAfTick                0x0001925b    0x1e  Code  Gb  thread-bookkeeping.o [1]
emAllocateIndirectBuffer
                        0x000097c5    0x2c  Code  Gb  buffer-management.o [46]
emAllocateTlsBuffer     0x0001e23f     0xc  Code  Gb  tls-record-util.o [46]
emAllocateTlsHandshakeBuffer
                        0x0001e24b    0xa4  Code  Gb  tls-record-util.o [46]
emAllocateTlsHeaderBuffer
                        0x0002a159    0x44  Code  Gb  tls-ccm-record.o [46]
emAllocateTlsState      0x0001e341    0x5c  Code  Gb  tls-record-util.o [46]
emAmLeader              0x200077a1     0x1  Data  Gb  network-data.o [46]
emAmShufflingDataset    0x00015757     0x8  Code  Gb  commission-dataset.o [46]
emAmThreadCommissioner  0x00015149     0x8  Code  Gb  commission.o [46]
emAnnounceNewNetworkData
                        0x000167ef    0x52  Code  Gb  network-data.o [46]
emAnyChildHasFlagsSet   0x00010335    0x2a  Code  Gb  child-data.o [46]
emAppCommissionCompleteHandler
                        0x00011e4b    0x2a  Code  Gb  join.o [46]
emAppEventQueue         0x20006cb4    0x10  Data  Gb  main.o [27]
emAppEvents             0x00034c38    0x18  Data  Gb  thread-events.o [1]
emAppTask               0x20006cac     0x1  Data  Gb  main.o [27]
emAssignRipId           0x0001970b    0xd8  Code  Gb  rip-neighbor.o [46]
emAssignRouterIdsInOrder
                        0x2000778c     0x1  Data  Gb  rip-neighbor.o [46]
emAttachParentLongId    0x000122ef     0x6  Code  Gb  join.o [46]
emAttachState           0x2000758f     0x1  Data  Gb  join.o [46]
emAvailableMask         0x20007790     0x8  Data  Gb  rip-neighbor.o [46]
emBeaconPayload         0x0001c859    0x1c  Code  Gb  command.o [46]
emBeaconPayloadBuffer   0x20007b24    0x34  Data  Gb  association.o [46]
emBeaconPayloadSize     0x20007b20     0x1  Data  Gb  association.o [46]
emBecomeLeader          0x00006d87    0x1c  Code  Gb  ip-stack.o [46]
emBitCopy               0x000062a1    0x2a  Code  Gb  byte-utilities.o [46]
emBitCountInt32u        0x000062cb    0x1c  Code  Gb  byte-utilities.o [46]
emBlacklistMyIslandId   0x000235a1    0x3c  Code  Gb  network-fragmentation.o [46]
emBootloadEvent         0x2000679c     0x8  Data  Gb  tftp-bootloader-server.o [35]
emBootloadEventHandler  0x00028895    0xbc  Code  Gb  tftp-bootloader-server.o [35]
emBorderRouterMessageHandler
                        0x00014dd3    0x20  Code  Gb  commission.o [46]
emBorderRouterNodeId    0x200074fa     0x2  Data  Gb  commission.o [46]
emBufferBytesRemaining  0x00008eb3    0x18  Code  Gb  buffer-management.o [46]
emBufferCalloc          0x0000c601    0x28  Code  Gb  jpake-ecc-mbedtls.o [43]
emBufferChainByteLength
                        0x000096bb    0x26  Code  Gb  buffer-management.o [46]
emBufferFree            0x00020ec7    0x34  Code  Gb  buffer-malloc.o [46]
emBufferMalloc          0x00020efb    0xa6  Code  Gb  buffer-malloc.o [46]
emBufferPointerToBuffer
                        0x000099b3    0x12  Code  Gb  buffer-management.o [46]
emBufferQueueAddToHead  0x000179e5    0x12  Code  Gb  buffer-queue.o [46]
emBufferQueueIsEmpty    0x00017971     0xa  Code  Gb  buffer-queue.o [46]
emBufferQueueLength     0x0001797b    0x22  Code  Gb  buffer-queue.o [46]
emBufferQueueNext       0x000179f7    0x14  Code  Gb  buffer-queue.o [46]
emBufferUsage           0x00008f53     0x8  Code  Gb  buffer-management.o [46]
emCacheParameters       0x0001142f    0x7a  Code  Gb  join.o [46]
emCallMarkFunctions     0x0000c713    0x46  Code  Gb  mark-list.o [46]
emCallSuspendReason     0x00009c05    0x50  Code  Gb  mac-arbiter.o [46]
emCancelCommissioningKey
                        0x000122b9     0xc  Code  Gb  join.o [46]
emCcmDecryptPacket      0x000100cd    0x64  Code  Gb  802-15-4-ccm.o [46]
emCcmEncrypt            0x0000ff6f    0x46  Code  Gb  802-15-4-ccm.o [46]
emCcmEncryptPacket      0x0000ffb5    0x16  Code  Gb  802-15-4-ccm.o [46]
emChannelMaskCache      0x20007598     0x4  Data  Gb  join.o [46]
emCheckAdditionalPendingData
                        0x0000a05b    0x6c  Code  Gb  mac-indirect.o [46]
emCheckForIdleDtlsConnection
                        0x0001e87f    0x18  Code  Gb  dtls.o [46]
emCheckRadioEvent       0x20007a30     0x8  Data  Gb  mac-efr32.o [46]
emChecksumPointer       0x00022273    0x24  Code  Gb  transport-header.o [46]
emChildAddressTable     0x20007f10     0x2  Data  Gb  child-data.o [46]
emChildCount            0x000103bf    0x28  Code  Gb  child-data.o [46]
emChildFrameCounters    0x20006190     0x4  Data  Gb  ember-ip-configuration.o [34]
emChildIdTable          0x20006180     0x4  Data  Gb  ember-ip-configuration.o [34]
emChildInit             0x0001026d    0x8a  Code  Gb  child-data.o [46]
emChildIsFrameCounterValid
                        0x00010923    0x6c  Code  Gb  child-data.o [46]
emChildLastTransactionTimesSec
                        0x20006198     0x4  Data  Gb  ember-ip-configuration.o [34]
emChildLongIdTable      0x20006184     0x4  Data  Gb  ember-ip-configuration.o [34]
emChildResetFrameCounter
                        0x000108fd    0x26  Code  Gb  child-data.o [46]
emChildSecondsSinceLastTransaction
                        0x0001053f    0x1e  Code  Gb  child-data.o [46]
emChildSequenceDeltas   0x20006194     0x4  Data  Gb  ember-ip-configuration.o [34]
emChildSetFrameCounter  0x000108bd    0x40  Code  Gb  child-data.o [46]
emChildStatus           0x2000617c     0x4  Data  Gb  ember-ip-configuration.o [34]
emChildTimeouts         0x2000618c     0x4  Data  Gb  ember-ip-configuration.o [34]
emChildTimers           0x20006188     0x4  Data  Gb  ember-ip-configuration.o [34]
emClearAddressCacheId   0x000137cb     0xc  Code  Gb  address-cache.o [46]
emClearNeighbor         0x00019491    0x32  Code  Gb  rip-neighbor.o [46]
emClearNetworkKeys      0x0000f907    0x28  Code  Gb  distributed-key-management.o [46]
emClearRoute            0x000194cd    0x1c  Code  Gb  rip-neighbor.o [46]
emClearUnicastTable     0x00010233     0xa  Code  Gb  unicast-table.o [46]
emCloseDtlsConnection   0x0001e943    0x3e  Code  Gb  dtls.o [46]
emCloseDtlsJoinConnection
                        0x0000c833    0x2e  Code  Gb  dtls-join.o [46]
emCoapCommissionMessageHandler
                        0x00014a7d    0x6c  Code  Gb  commission.o [46]
emCoapInitialize        0x0000c25d    0x18  Code  Gb  coap.o [46]
emCoapMarkBuffers       0x0000be45     0x8  Code  Gb  coap.o [46]
emCoapMessageHandler    0x00014983    0x5e  Code  Gb  commission.o [46]
emCoapReallyRespondWithUri
                        0x0000c243     0x2  Code  Gb  coap.o [46]
emCoapRespondWithUri    0x0000c259     0x4  Code  Gb  coap.o [46]
emCoapRetryEventActions
                        0x0000b92c    0x10  Data  Gb  coap.o [46]
emCoapStackIncomingMessageHandler
                        0x0001f8d1    0x6a  Code  Gb  coap-stack.o [46]
emComScanBuffer         0x20007510     0x2  Data  Gb  commission.o [46]
emComScanEvent          0x20006434     0xc  Data  Gb  commission.o [46]
emComScanEventHandler   0x00014383    0xba  Code  Lc  commission.o [46]
emCommandReaderReinit   0x000278e5    0x28  Code  Gb  command-interpreter2-util.o [12]
emCommandState          0x20007158    0x94  Data  Gb  command-interpreter2-util.o [12]
emCommissionDatasetInit
                        0x0001574b     0xc  Code  Gb  commission-dataset.o [46]
emCommissionInit        0x00013bed    0x22  Code  Gb  commission.o [46]
emCommissioner          0x200074f8     0x2  Data  Gb  commission.o [46]
emCommissionerMessageHandler
                        0x00014e09    0x20  Code  Gb  commission.o [46]
emCommissionerSessionId
                        0x200074f6     0x2  Data  Gb  commission.o [46]
emCommissioningHandshakeComplete
                        0x0001229d    0x1c  Code  Gb  join.o [46]
emCompressContextPrefix
                        0x0001b193    0x7a  Code  Gb  context-table.o [46]
emCompressMulticastAddress
                        0x0001da57    0x74  Code  Gb  6lowpan-header.o [46]
emComputeDerivedKeys    0x0002d713    0x34  Code  Gb  tls-handshake-crypto.o [46]
emComputeEui64Hash      0x00011813    0x3a  Code  Gb  join.o [46]
emConnectivityBucketCounts
                        0x00019ba3    0x50  Code  Gb  rip-neighbor.o [46]
emConvert6lowpanToInternal
                        0x0001d4a3   0x148  Code  Gb  6lowpan-header.o [46]
emConvertInternalTo6lowpan
                        0x0001dfbb    0x1a  Code  Gb  6lowpan-header.o [46]
emCopyDatasetTlvs       0x00015c21     0xe  Code  Gb  commission-dataset.o [46]
emCopyFromGenericQueue  0x00017af5    0x5a  Code  Gb  buffer-queue.o [46]
emCopyFromLinkedBuffers
                        0x0001e119    0x3e  Code  Gb  tls-record-util.o [46]
emCopyNetworkData       0x0001662b   0x11e  Code  Gb  network-data.o [46]
emCountNodeInLocalServerData
                        0x00010feb    0x6e  Code  Gb  local-server-data.o [46]
emCountNodeInNetworkData
                        0x00010fb3    0x38  Code  Gb  local-server-data.o [46]
emCsmaTransmit          0x00017c75    0x40  Code  Gb  mac-efr32.o [46]
emCurrentIpSource       0x20007448     0x4  Data  Gb  dispatch.o [46]
emCurrentMeshSource     0x200063ee     0x2  Data  Gb  dispatch.o [46]
emCurrentRssi           0x20007442     0x1  Data  Gb  dispatch.o [46]
emCustomLinkQualities   0x200077a8     0x8  Data  Gb  rip.o [46]
emDebugAddInitialFraming
                        0x00008733    0x18  Code  Gb  debug-jtag.o [46]
emDebugBinaryFormat     0x000089a7    0x10  Code  Gb  debug.o [46]
emDebugClearStats       0x00008a51     0xa  Code  Gb  debug.o [46]
emDebugInit             0x0000866d    0x6a  Code  Gb  debug-jtag.o [46]
emDebugInternalBinaryPrintf
                        0x00008a69   0x12e  Code  Lc  debug.o [46]
emDebugPowerUp          0x000086d7    0x50  Code  Gb  debug-jtag.o [46]
emDebugResetInfo        0x000089c5    0x4e  Code  Gb  debug.o [46]
emDebugSend             0x00008835    0x1a  Code  Gb  debug-jtag.o [46]
emDebugSendVuartMessage
                        0x000089b7     0xe  Code  Gb  debug.o [46]
emDebugStats            0x00008a5b     0xe  Code  Gb  debug.o [46]
emDecimalStringWrite    0x00004dfb    0x58  Code  Gb  ember-printf.o [31]
emDecrementMeshHeaderHopLimit
                        0x0001e0a3    0x48  Code  Gb  6lowpan-header.o [46]
emDefaultEchoReplyPayloadSize
                        0x200063f0     0x2  Data  Gb  dispatch.o [46]
emDefaultPrefixInit     0x00006f27    0x12  Code  Gb  global-prefix.o [46]
emDefaultSourceLongId   0x00034c60     0x8  Data  Gb  ip-stack.o [46]
emDeleteGatewayAddressEntry
                        0x00007027    0x26  Code  Gb  global-prefix.o [46]
emDeleteGlobalAddressEntry
                        0x00006ff9    0x20  Code  Gb  global-prefix.o [46]
emDequeueNextIndirectPacket
                        0x0000a021    0x32  Code  Gb  mac-indirect.o [46]
emDeriveKeys            0x0002d747   0x122  Code  Gb  tls-handshake-crypto.o [46]
emDeriveMleAndMacKeys   0x0000f95d    0x3c  Code  Gb  distributed-key-management.o [46]
emDerivePskc            0x000229a5    0x5c  Code  Gb  thread-key-stretch.o [46]
emDhcpAddressTable      0x200065ec     0x8  Data  Gb  dhcp-address-table.o [39]
emDhcpIncomingMessageHandler
                        0x0001ec4f    0x1e  Code  Gb  dhcp.o [39]
emDhcpRequestFailed     0x00029ca5    0x9c  Code  Gb  dhcp-client.o [39]
emDisassociateChild     0x0000f2bd    0x28  Code  Gb  mle.o [46]
emDropCallback          0x20007b78     0x4  Data  Gb  ip-mac-receive.o [46]
emDtlsConnectionTimeout
                        0x0001e7f5    0x8a  Code  Gb  dtls.o [46]
emDtlsJoinMode          0x20007608     0x1  Data  Gb  dtls-join.o [46]
emDtlsJoinRequireCookie
                        0x20006470     0x1  Data  Gb  dtls-join.o [46]
emDtlsRetryTimeoutQs    0x200065f4     0x2  Data  Gb  dtls.o [46]
emDtlsStatusHandler     0x0001e981   0x1e4  Code  Gb  dtls.o [46]
emEmptyPhyToMacQueue    0x000098d3     0x8  Code  Gb  buffer-management.o [46]
emEnableChildAging      0x20006580     0x1  Data  Gb  child-aging.o [46]
emEnableMacDecryption   0x2000665c     0x1  Data  Gb  ip-mac-header.o [46]
emEnableMacEncryption   0x20006447     0x1  Data  Gb  join.o [46]
emEncryptDataPolls      0x200065f6     0x1  Data  Gb  command.o [46]
emEncryptFragmentedMle  0x2000665d     0x1  Data  Gb  ip-mac-header.o [46]
emEndBufferSpaceReservation
                        0x00009715     0x8  Code  Gb  buffer-management.o [46]
emEndBufferUsage        0x00008f5b     0xc  Code  Gb  buffer-management.o [46]
emEndDeviceRebootFailed
                        0x00012aa3    0x10  Code  Gb  join.o [46]
emEndDeviceRebootSuccess
                        0x00012a81    0x22  Code  Gb  join.o [46]
emEnergyScanHandler     0x000116c5    0x18  Code  Gb  join.o [46]
emEnergyScanResultsBuffer
                        0x20007680     0x2  Data  Gb  scan.o [46]
emEraseChild            0x00010777    0x94  Code  Gb  child-data.o [46]
emEventControlSetActive
                        0x00017733    0x16  Code  Gb  event-control.o [46]
emEventControlSetDelayMS
                        0x00017749    0x1a  Code  Gb  event-control.o [46]
emExpandSequenceNumber  0x0000fbf3    0x1e  Code  Gb  distributed-key-management.o [46]
emExternalCommissionerKeepAlive
                        0x00015581    0x26  Code  Gb  commission.o [46]
emExternalRouteTable    0x20007f0e     0x2  Data  Gb  local-server-data.o [46]
emExternalRouteTableInit
                        0x000111ed     0x8  Code  Gb  local-server-data.o [46]
emFe8Prefix             0x00005690     0x8  Data  Gb  ip-address.o [46]
emFetchInt32u           0x000061bd    0x28  Code  Gb  byte-utilities.o [46]
emFetchIpv6Header       0x0001e011    0x14  Code  Gb  6lowpan-header.o [46]
emFetchUdpHeader        0x0002232b    0x44  Code  Gb  transport-header.o [46]
emFf02AllNodesMulticastAddress
                        0x00034d90    0x10  Data  Gb  ip-address.o [46]
emFf02AllRoutersMulticastAddress
                        0x00034da0    0x10  Data  Gb  ip-address.o [46]
emFf03AllRoutersMulticastAddress
                        0x00034db0    0x10  Data  Gb  ip-address.o [46]
emFf32AllThreadNodesMulticastAddress
                        0x200064b0    0x10  Data  Gb  ip-address.o [46]
emFf33AllThreadNodesMulticastAddress
                        0x200064c0    0x10  Data  Gb  ip-address.o [46]
emFillIslandId          0x00023503    0x4a  Code  Gb  network-fragmentation.o [46]
emFindAll6lowpanContexts
                        0x0001b10d    0x2e  Code  Gb  context-table.o [46]
emFindBorderRouterTlv   0x00016dd7     0x6  Code  Gb  network-data.o [46]
emFindChildIndex        0x0001035f    0x60  Code  Gb  child-data.o [46]
emFindChildIndexByAddress
                        0x0001098f    0x78  Code  Gb  child-data.o [46]
emFindConnection        0x0000afbd    0x5e  Code  Gb  udp.o [46]
emFindEventWithoutRemoving
                        0x0000b827    0x34  Code  Gb  event-queue.o [46]
emFindEvents            0x0000b7d1    0x56  Code  Gb  event-queue.o [46]
emFindNearestDhcpServer
                        0x00016ddd    0x5e  Code  Gb  network-data.o [46]
emFindNearestGateway    0x00016ef3    0x90  Code  Gb  network-data.o [46]
emFindNeighborByIpAddress
                        0x00019649    0x2e  Code  Gb  rip-neighbor.o [46]
emFindNeighborIndex     0x00019683    0x40  Code  Gb  rip-neighbor.o [46]
emFindNeighborIndexByIpAddress
                        0x00019593    0x56  Code  Gb  rip-neighbor.o [46]
emFindNeighborIndexByShortId
                        0x00019541     0xe  Code  Gb  rip-neighbor.o [46]
emFindNetworkDataSubTlv
                        0x0001697b    0x1a  Code  Gb  network-data.o [46]
emFindNextNetworkDataTlv
                        0x000169bd    0x32  Code  Gb  network-data.o [46]
emFindPrefixSubTlv      0x0001699b    0x22  Code  Gb  network-data.o [46]
emFindPrefixTlv         0x00016d91    0x46  Code  Gb  network-data.o [46]
emFindTlv               0x0001695b    0x20  Code  Gb  network-data.o [46]
emFindTlvWithTypeByte   0x000169ef    0x30  Code  Gb  network-data.o [46]
emFinishDtlsServerJoin  0x0000c7c1    0x3a  Code  Gb  dtls-join.o [46]
emFirstByteOfArg        0x0002794d    0x14  Code  Gb  command-interpreter2-util.o [12]
emFollowingBuffer       0x000099c5    0x10  Code  Gb  buffer-management.o [46]
emForceBadMleHopCount   0x20007fe0     0x1  Data  Gb  mle.o [46]
emForceBadMleMic        0x20007fdf     0x1  Data  Gb  mle.o [46]
emForceChildTimeoutSec  0x20006584     0x4  Data  Gb  child-aging.o [46]
emForceDark             0x20007fe9     0x1  Data  Gb  router-selection.o [46]
emForceEuiInterface     0x20007fd2     0x1  Data  Gb  join.o [46]
emForceIslandId         0x20007b9c     0x1  Data  Gb  network-fragmentation.o [46]
emForceJoinBetterIslandDelayMs
                        0x20007fba     0x2  Data  Gb  network-fragmentation.o [46]
emForceLinkQualityPointer
                        0x2000759c     0x4  Data  Gb  join.o [46]
emForceLongSourcePoll   0x20007fe6     0x1  Data  Gb  command.o [46]
emForceMleFrameCounter  0x20006570     0x4  Data  Gb  mle.o [46]
emForceParentId         0x20006442     0x2  Data  Gb  join.o [46]
emForceParentLongId     0x200075ac     0x8  Data  Gb  join.o [46]
emForceRejectCoapSolicit
                        0x20007fe4     0x1  Data  Gb  address-management.o [46]
emForceRejectDhcp       0x20007fea     0x1  Data  Gb  dhcp.o [39]
emForceResponseLinkQuality
                        0x20006440     0x1  Data  Gb  join.o [46]
emForceRouterIdBlacklistTimeoutMs
                        0x200064e4     0x4  Data  Gb  rip-neighbor.o [46]
emForcedIslandId        0x20007ba0     0x8  Data  Gb  network-fragmentation.o [46]
emForm                  0x000116dd    0xb2  Code  Gb  join.o [46]
emFormScanBuffer        0x20007594     0x2  Data  Gb  join.o [46]
emFormSecurityInit      0x0000f8f3    0x12  Code  Gb  distributed-key-management.o [46]
emForwardToCommissioner
                        0x00014f91    0x70  Code  Gb  commission.o [46]
emForwardToJoiner       0x00015011    0x1a  Code  Gb  commission.o [46]
emFragmentInit          0x0002339d    0x24  Code  Gb  network-fragmentation.o [46]
emFragmentState         0x20007ba9     0x1  Data  Gb  network-fragmentation.o [46]
emFragmentTimeoutMs     0x20006514     0x2  Data  Gb  fragment.o [46]
emFragmentedMessages    0x20007f1e     0x2  Data  Gb  fragment.o [46]
emGatewayHasDefaultRoute
                        0x0000707f    0x12  Code  Gb  global-prefix.o [46]
emGenerateKek           0x0000cb73    0x74  Code  Gb  dtls-join.o [46]
emGenericQueueAdd       0x000179ab    0x32  Code  Gb  buffer-queue.o [46]
emGenericQueueHead      0x0001799d     0xe  Code  Gb  buffer-queue.o [46]
emGenericQueueRemove    0x00017a49    0x64  Code  Gb  buffer-queue.o [46]
emGenericQueueRemoveHead
                        0x00017a0b    0x3e  Code  Gb  buffer-queue.o [46]
emGetActiveDataset      0x000156e1    0x30  Code  Gb  commission-dataset.o [46]
emGetActiveDatasetTlvs  0x0001641f     0x4  Code  Gb  commission-dataset.o [46]
emGetActiveMacKeyAndSequence
                        0x0000fc1d    0x16  Code  Gb  distributed-key-management.o [46]
emGetAddressData        0x0001363b     0x8  Code  Gb  address-cache.o [46]
emGetAttachReason       0x00012ab3     0x6  Code  Gb  join.o [46]
emGetAuxFrameSize       0x0000fef5     0xe  Code  Gb  802-15-4-ccm.o [46]
emGetBufferLength       0x00009541    0x2c  Code  Gb  buffer-management.o [46]
emGetBufferLink         0x0000964f    0x20  Code  Gb  buffer-management.o [46]
emGetBufferPointer      0x00009513    0x2e  Code  Gb  buffer-management.o [46]
emGetCoapCodeName       0x0000b9cb    0x1a  Code  Gb  coap.o [46]
emGetCoapContentFormatTypeName
                        0x0000b9e5    0x18  Code  Gb  coap.o [46]
emGetCoapStatusName     0x0000ba4d    0x1a  Code  Gb  coap.o [46]
emGetCommissionKey      0x0000cc71     0x8  Code  Gb  dtls-join.o [46]
emGetCommissioningMacKey
                        0x0001224d    0x1e  Code  Gb  join.o [46]
emGetGatewayAddressEntry
                        0x00007079     0x6  Code  Gb  global-prefix.o [46]
emGetKeyFromCore        0x00023d05    0x1a  Code  Gb  aes.o [46]
emGetLeaderNodeId       0x00016a27    0x16  Code  Gb  network-data.o [46]
emGetLegacyMleKey       0x0000fc37     0x4  Code  Gb  distributed-key-management.o [46]
emGetLegacyNetworkKey   0x0000fc33     0x4  Code  Gb  distributed-key-management.o [46]
emGetLongIdFromAuxFrame
                        0x00010131    0x1c  Code  Gb  802-15-4-ccm.o [46]
emGetMacKey             0x0000fc11     0x6  Code  Gb  distributed-key-management.o [46]
emGetMeshSource         0x0001d011    0x1a  Code  Gb  ip-packet-header.o [46]
emGetMleKey             0x0000fc17     0x6  Code  Gb  distributed-key-management.o [46]
emGetNetworkKeySequence
                        0x0000fb6b     0xc  Code  Gb  distributed-key-management.o [46]
emGetNetworkMasterKey   0x0000fa03    0x2c  Code  Gb  distributed-key-management.o [46]
emGetOutgoingCommissioningMacKey
                        0x0001f899    0x34  Code  Gb  coap-stack.o [46]
emGetParentIpv6Address  0x000120b3    0x22  Code  Gb  join.o [46]
emGetPendingDatasetTlvs
                        0x00016423    0x14  Code  Gb  commission-dataset.o [46]
emGetPendingTimestamp   0x00015745     0x6  Code  Gb  commission-dataset.o [46]
emGetPhyRadioChannel    0x000191cf     0x6  Code  Gb  phy.o [46]
emGetPhyRadioPower      0x000191d5    0x1c  Code  Gb  phy.o [46]
emGetPhyRadioPowerFl    0x000191f9     0x8  Code  Gb  phy.o [46]
emGetPollTimeout        0x0001d40b    0x1e  Code  Gb  child-aging.o [46]
emGetPrefixAddressEntry
                        0x00007091     0x6  Code  Gb  global-prefix.o [46]
emGetRoute              0x0000d681    0x66  Code  Gb  rip.o [46]
emGetRouteCost          0x0000d6e7    0x2c  Code  Gb  rip.o [46]
emGetSecurityFrameCounter
                        0x0000fdab     0x6  Code  Gb  802-15-4-ccm.o [46]
emGetSequenceFromAuxFrame
                        0x0000ff03    0x32  Code  Gb  802-15-4-ccm.o [46]
emGetShortAddress       0x000138f3    0x74  Code  Gb  address-cache.o [46]
emGetTftpBootloaderRemoteAddress
                        0x0002ea69    0x18  Code  Gb  tftp-bootloader.o [35]
emGetThreadJoin         0x00011e9b     0xc  Code  Gb  join.o [46]
emGetThreadNativeCommission
                        0x00011f59    0x12  Code  Gb  join.o [46]
emGleanShortIdFromInterfaceId
                        0x000050db    0x1a  Code  Gb  ip-address.o [46]
emGlobalAddressTable    0x200074b2     0x2  Data  Gb  global-prefix.o [46]
emGlobalAddressTableInit
                        0x00006f39     0xa  Code  Gb  global-prefix.o [46]
emHandleAddressManagementPost
                        0x00023963    0x52  Code  Gb  address-management.o [46]
emHandleCommissionDatasetPost
                        0x00015f99    0x68  Code  Gb  commission-dataset.o [46]
emHandleIncomingCoapCommission
                        0x0001f7b7    0xb2  Code  Gb  coap-stack.o [46]
emHandleIncomingTcp     0x00026fa7     0x2  Code  Gb  tcp-stub.o [46]
emHandleIncomingUdp     0x0000b0cf   0x102  Code  Gb  udp.o [46]
emHandleJoinDtlsMessage
                        0x00014e33    0x86  Code  Gb  commission.o [46]
emHandleTftpBootloaderBootloadRequest
                        0x0002898f    0x80  Code  Gb  tftp-bootloader-server.o [35]
emHandleThreadDiagnosticMessage
                        0x00025a1d   0x134  Code  Gb  coap-diagnostic-stack.o [46]
emHandshakeFinishedHash
                        0x0002d895    0x46  Code  Gb  tls-handshake-crypto.o [46]
emHasPendingDataset     0x000160c1     0x6  Code  Gb  commission-dataset.o [46]
emHashTlsHandshake      0x0001e2f9    0x48  Code  Gb  tls-record-util.o [46]
emHastenRipAdvertisement
                        0x0000d277    0x1c  Code  Gb  rip.o [46]
emHaveExternalRoute     0x00011275    0x16  Code  Gb  local-server-data.o [46]
emHaveLeader            0x200077a2     0x1  Data  Gb  network-data.o [46]
emHaveLegacyUla         0x00006f23     0x4  Code  Gb  global-prefix.o [46]
emHeaderIsBroadcast     0x0001cf49    0x26  Code  Gb  ip-packet-header.o [46]
emHeaderMacInfoField    0x0001cde1     0x6  Code  Gb  ip-packet-header.o [46]
emHeaderSetMacInfoField
                        0x0001cde7     0x8  Code  Gb  ip-packet-header.o [46]
emHeaderSetStackPrivate
                        0x0001cdef    0x10  Code  Gb  ip-packet-header.o [46]
emHeaderSetTag          0x0001ce05     0x4  Code  Gb  ip-packet-header.o [46]
emHeaderTag             0x0001cdff     0x6  Code  Gb  ip-packet-header.o [46]
emHeapBase              0x20007468     0x4  Data  Lc  buffer-management.o [46]
emHeapLimit             0x2000746c     0x4  Data  Lc  buffer-management.o [46]
emIgnoreChildUpdates    0x20007a41     0x1  Data  Gb  mle.o [46]
emIgnoreParentRequests  0x20007a40     0x1  Data  Gb  mle.o [46]
emIncomingForMeToUart   0x20007440     0x1  Data  Gb  dispatch.o [46]
emIncomingJoinMessageHandler
                        0x0000c861   0x29c  Code  Gb  dtls-join.o [46]
emIncomingLinkQuality   0x000199c1    0x12  Code  Gb  rip-neighbor.o [46]
emInitEui64             0x00013555    0x22  Code  Gb  eui64.o [46]
emInitializeAppBootloader
                        0x0002881d    0x38  Code  Gb  tftp-bootloader-server.o [35]
emInitializeBuffers     0x00008e89    0x2a  Code  Gb  buffer-management.o [46]
emInitializeChild       0x0001045b    0xce  Code  Gb  child-data.o [46]
emInitializeEventQueue  0x0000b51b     0xa  Code  Gb  event-queue.o [46]
emInitializeLeaderNetworkData
                        0x00016a69    0x36  Code  Gb  network-data.o [46]
emInitializeLeaderRipId
                        0x0000d099    0x30  Code  Gb  rip.o [46]
emInitializeLeaderServerData
                        0x000110bf    0x24  Code  Gb  local-server-data.o [46]
emInitializeStackCoapMessage
                        0x000223df    0x32  Code  Gb  transport-header.o [46]
emInitializeTftpServer  0x00028519     0xc  Code  Gb  tftp-server.o [35]
emInsertRipEntry        0x0001937b    0x7a  Code  Gb  rip-neighbor.o [46]
emInterfaceIdToLongId   0x00005133    0x10  Code  Gb  ip-address.o [46]
emIpConnections         0x20007f14     0x2  Data  Gb  udp.o [46]
emIsActiveKeySequence   0x0000f8dd    0x16  Code  Gb  distributed-key-management.o [46]
emIsAssignedId          0x0000d047    0x38  Code  Gb  rip.o [46]
emIsAssignedInMask      0x0000d07f    0x1a  Code  Gb  rip.o [46]
emIsBlacklistedIslandId
                        0x000235dd    0x1c  Code  Gb  network-fragmentation.o [46]
emIsCandidateIslandId   0x000235f9    0x4c  Code  Gb  network-fragmentation.o [46]
emIsDefaultGlobalPrefix
                        0x00006f05    0x1c  Code  Gb  global-prefix.o [46]
emIsDuplicateMulticast  0x00010a97   0x178  Code  Gb  multicast.o [46]
emIsFe8Address          0x000051ff     0xa  Code  Gb  ip-address.o [46]
emIsFf01MulticastAddress
                        0x0000529f     0xe  Code  Gb  ip-address.o [46]
emIsFf02MulticastAddress
                        0x000052ad    0x14  Code  Gb  ip-address.o [46]
emIsFf32MulticastAddress
                        0x0000525f    0x20  Code  Gb  ip-address.o [46]
emIsFf33MulticastAddress
                        0x0000527f    0x20  Code  Gb  ip-address.o [46]
emIsFragment            0x0000a6b9    0x28  Code  Gb  fragment.o [46]
emIsFullThreadDeviceChild
                        0x00010843    0x16  Code  Gb  child-data.o [46]
emIsGlobalIpAddress     0x0000732b    0x18  Code  Gb  global-prefix.o [46]
emIsGp16                0x000051a3    0x1a  Code  Gb  ip-address.o [46]
emIsGp64                0x000051d7     0xa  Code  Gb  ip-address.o [46]
emIsInUnicastTable      0x000101f1    0x28  Code  Gb  unicast-table.o [46]
emIsIslandIdBetter      0x0002354d    0x2c  Code  Gb  network-fragmentation.o [46]
emIsIslandIdBetterThanMine
                        0x00023579    0x20  Code  Gb  network-fragmentation.o [46]
emIsLl64                0x00005209     0x8  Code  Gb  ip-address.o [46]
emIsLocalIpAddress      0x00007343    0x9e  Code  Gb  global-prefix.o [46]
emIsLocalLl64InterfaceId
                        0x00005107    0x1c  Code  Gb  ip-address.o [46]
emIsLocalMl64InterfaceId
                        0x000050f5     0x2  Code  Gb  ip-address.o [46]
emIsLocalShortInterfaceId
                        0x0000514f    0x2e  Code  Gb  ip-address.o [46]
emIsLoopbackAddress     0x0000517d    0x18  Code  Gb  ip-address.o [46]
emIsMulticastForMe      0x00026af9    0x5a  Code  Gb  ip-header.o [46]
emIsOnMeshPrefix        0x00016e3b     0xe  Code  Gb  network-data.o [46]
emIsOurDhcpServerPrefix
                        0x00007097    0x1c  Code  Gb  global-prefix.o [46]
emIsSleepyChild         0x0001082b    0x18  Code  Gb  child-data.o [46]
emIsUnicastForMe        0x00005249    0x16  Code  Gb  ip-address.o [46]
emIsValidBuffer         0x00009507     0xc  Code  Gb  buffer-management.o [46]
emIslandInit            0x000233ef    0x14  Code  Gb  network-fragmentation.o [46]
emIsrEventMarker        0x0000b511     0xa  Code  Gb  event-queue.o [46]
emJitTransmitComplete   0x0001c539    0x94  Code  Gb  jit.o [46]
emJoinBetterIsland      0x0002349b    0x68  Code  Gb  network-fragmentation.o [46]
emJoinCommissionCompleteHandler
                        0x000122c5    0x1c  Code  Gb  join.o [46]
emJoinInit              0x00012029    0x82  Code  Gb  join.o [46]
emJoinIsFrameCounterValid
                        0x0001294f    0x3e  Code  Gb  join.o [46]
emJoinSecurityFailed    0x00011e75    0x10  Code  Gb  join.o [46]
emJoinSecurityInit      0x0000f905     0x2  Code  Gb  distributed-key-management.o [46]
emJoinState             0x20007589     0x1  Data  Gb  join.o [46]
emJpakeEccFinish        0x0000c437    0x46  Code  Gb  jpake-ecc-mbedtls.o [43]
emJpakeEccGetCkxaOrSkxbData
                        0x0000c4e3    0x2a  Code  Gb  jpake-ecc-mbedtls.o [43]
emJpakeEccGetHxaHxbData
                        0x0000c47d    0x38  Code  Gb  jpake-ecc-mbedtls.o [43]
emJpakeEccMarkData      0x0000c54b    0xb2  Code  Gb  jpake-ecc-mbedtls.o [43]
emJpakeEccStart         0x0000c3f5    0x42  Code  Gb  jpake-ecc-mbedtls.o [43]
emJpakeEccVerifyCkxaOrSkxbData
                        0x0000c51f    0x26  Code  Gb  jpake-ecc-mbedtls.o [43]
emJpakeEccVerifyHxaHxbData
                        0x0000c4b5    0x2e  Code  Gb  jpake-ecc-mbedtls.o [43]
emLeaderCost            0x0001a079    0x20  Code  Gb  rip-neighbor.o [46]
emLeaderDataMatches     0x00016a3d    0x2c  Code  Gb  network-data.o [46]
emLeaderIndex           0x0001a069    0x10  Code  Gb  rip-neighbor.o [46]
emLeaderTimeoutMs       0x200065fc     0x4  Data  Gb  network-fragmentation.o [46]
emLinkIsEstablished     0x00019867    0x10  Code  Gb  rip-neighbor.o [46]
emLinkMarginToQuality   0x000199ad     0x4  Code  Gb  rip-neighbor.o [46]
emLinkQualityToRssi     0x000199d3    0x30  Code  Gb  rip-neighbor.o [46]
emLoadKeyIntoCore       0x00023ce9    0x12  Code  Gb  aes.o [46]
emLocalEui64            0x20007b88     0x8  Data  Gb  eui64.o [46]
emLocalIslandId         0x00023403     0xe  Code  Gb  network-fragmentation.o [46]
emLocalRadioNodeId      0x2000649a     0x2  Data  Lc  phy-common.o [46]
emLocalRadioPanId       0x2000649c     0x2  Data  Lc  phy-common.o [46]
emLocalRipId            0x0000d033    0x14  Code  Gb  rip.o [46]
emLogIsActive           0x0002a619    0x1c  Code  Gb  log.o [46]
emLongIdToInterfaceId   0x00005123    0x10  Code  Gb  ip-address.o [46]
emLookupChildEui64ById  0x00010869    0x18  Code  Gb  child-data.o [46]
emLookupHandle          0x0000af7b    0x42  Code  Gb  udp.o [46]
emLookupLongId          0x00006b2f    0x16  Code  Gb  ip-stack.o [46]
emLookupNextHop         0x00018e0b    0x60  Code  Gb  dispatch.o [46]
emMacBeaconSequenceNumber
                        0x20007f2e     0x1  Data  Gb  mac-arbiter.o [46]
emMacBuffer             0x20007f32     0x2  Data  Gb  mac-arbiter.o [46]
emMacCheckIncomingQueue
                        0x00017e57   0x1ae  Code  Gb  ip-mac-receive.o [46]
emMacCheckRadio         0x00017d81     0x2  Code  Gb  mac-efr32.o [46]
emMacCommandHandler     0x00026a5d    0x8e  Code  Gb  association.o [46]
emMacCurrentCommand     0x20007fde     0x1  Data  Gb  mac-arbiter.o [46]
emMacCurrentFrameType   0x20007fdd     0x1  Data  Gb  mac-arbiter.o [46]
emMacDataSequenceNumber
                        0x20007f2d     0x1  Data  Gb  mac-arbiter.o [46]
emMacDecrypt            0x0001014d    0x82  Code  Gb  802-15-4-ccm.o [46]
emMacDequeue            0x00009b83    0x60  Code  Gb  mac-arbiter.o [46]
emMacDestinationMode    0x0001ce0f     0xe  Code  Gb  ip-packet-header.o [46]
emMacDestinationPointer
                        0x0001ce1d    0x1e  Code  Gb  ip-packet-header.o [46]
emMacDropIncomingPackets
                        0x20007b6c     0x1  Data  Gb  ip-mac-receive.o [46]
emMacEncrypt            0x0000ffcb    0xf2  Code  Gb  802-15-4-ccm.o [46]
emMacExtendedId         0x20007b90     0x8  Data  Gb  eui64.o [46]
emMacGetChannel         0x00009be3     0x6  Code  Gb  mac-arbiter.o [46]
emMacHeaderLength       0x0001cd61    0x36  Code  Gb  mac-header-util.o [46]
emMacIndirectCheckPollFlags
                        0x0000a1c7    0xf4  Code  Gb  mac-indirect.o [46]
emMacIndirectInit       0x00009ee3    0x14  Code  Gb  mac-indirect.o [46]
emMacIndirectProcessPoll
                        0x00009fab    0x76  Code  Gb  mac-indirect.o [46]
emMacIndirectPurge      0x0000a1bf     0x8  Code  Gb  mac-indirect.o [46]
emMacIndirectTransmitComplete
                        0x0000a0c7    0xc2  Code  Gb  mac-indirect.o [46]
emMacInit               0x00009d09    0x46  Code  Gb  mac-arbiter.o [46]
emMacIsDwelling         0x00009ce7    0x22  Code  Gb  mac-arbiter.o [46]
emMacIsEmpty            0x00009c9d    0x4a  Code  Gb  mac-arbiter.o [46]
emMacKickStart          0x0000cd75    0x2e  Code  Gb  mac.o [46]
emMacMakeBeacon         0x0001c7c9    0x68  Code  Gb  command.o [46]
emMacMakePollCommand    0x0001c74f    0x7a  Code  Gb  command.o [46]
emMacMaxAckRetries      0x2000654c     0x1  Data  Gb  mac-efr32.o [46]
emMacPayloadIndex       0x0001cda9    0x24  Code  Gb  ip-packet-header.o [46]
emMacPayloadPointer     0x0001cdcd    0x14  Code  Gb  ip-packet-header.o [46]
emMacPermitAssn         0x20007fe5     0x1  Data  Gb  command.o [46]
emMacPrepareTransmitBuffer
                        0x00022f29   0x3a0  Code  Gb  ip-mac-header.o [46]
emMacRequestPoll        0x00009b71    0x12  Code  Gb  mac-arbiter.o [46]
emMacRetries            0x20007fdc     0x1  Data  Gb  mac-efr32.o [46]
emMacScanDwell          0x0000cf17    0x3e  Code  Gb  mac.o [46]
emMacScanEnd            0x0000ced5    0x42  Code  Gb  mac.o [46]
emMacScanType           0x20006484     0x1  Data  Gb  scan.o [46]
emMacSendBeaconRequest  0x0001c723    0x12  Code  Gb  command.o [46]
emMacSendCommand        0x0001c6d1    0x3e  Code  Gb  command.o [46]
emMacSendOrphanNotification
                        0x0001c70f    0x14  Code  Gb  command.o [46]
emMacSetChannel         0x00009be9    0x1c  Code  Gb  mac-arbiter.o [46]
emMacSetIdleMode        0x0000cf55    0x30  Code  Gb  mac.o [46]
emMacShortDestination   0x0001ce3b     0x8  Code  Gb  ip-packet-header.o [46]
emMacShortSource        0x0001cfb1     0x6  Code  Gb  ip-packet-header.o [46]
emMacSourceMode         0x0001cf6f     0xe  Code  Gb  ip-packet-header.o [46]
emMacSourcePanId        0x0001cfbf    0x52  Code  Gb  ip-packet-header.o [46]
emMacSourcePointer      0x0001cf7d    0x34  Code  Gb  ip-packet-header.o [46]
emMacState              0x20007fe2     0x1  Data  Gb  mac.o [46]
emMacSubmit             0x00009b2d    0x44  Code  Gb  mac-arbiter.o [46]
emMacSubmitIndirect     0x00009ef7    0x68  Code  Gb  mac-indirect.o [46]
emMacSuspendReason      0x20007f2c     0x1  Data  Gb  mac-arbiter.o [46]
emMacSuspendTransmission
                        0x00009c55    0x48  Code  Gb  mac-arbiter.o [46]
emMacToNetworkQueue     0x20007f38     0x2  Data  Gb  mac-arbiter.o [46]
emMacTransmitCompleteCallback
                        0x00018d19    0xc6  Code  Gb  dispatch.o [46]
emMacTransmitCompleteHandler
                        0x00009db3    0x1c  Code  Gb  mac-arbiter.o [46]
emMacTransmitCompleteIsr
                        0x00009d4f    0x58  Code  Gb  mac-arbiter.o [46]
emMacTransmitCounter    0x20007450     0x4  Data  Gb  dispatch.o [46]
emMacTransmitEvent      0x200065e0     0xc  Data  Gb  mac.o [46]
emMakeAssignedRipIdMask
                        0x0000d0c9    0x64  Code  Gb  rip.o [46]
emMakeDataHeader        0x0001d02b    0xa2  Code  Gb  ip-packet-header.o [46]
emMakeHelloVerifyRequestMessage
                        0x000216bf    0x3c  Code  Gb  tls-handshake.o [46]
emMakeIpHeader          0x00026b8b   0x302  Code  Gb  ip-header.o [46]
emMakeLocalServerData   0x00010eed    0xa4  Code  Gb  local-server-data.o [46]
emMakeNextFragment      0x0000ab47   0x2ee  Code  Gb  fragment.o [46]
emMakeRawPacketHeader   0x0001d0cd    0x4a  Code  Gb  ip-packet-header.o [46]
emMakeStackJitMessage   0x0001c40f    0x64  Code  Gb  jit.o [46]
emMakeTaggedIcmpHeader  0x0002236f    0x70  Code  Gb  transport-header.o [46]
emMakeTaggedUdpHeader   0x00022297    0x5a  Code  Gb  transport-header.o [46]
emMallocCount           0x20007ef8     0x4  Data  Gb  buffer-malloc.o [46]
emMallocFreeList        0x2000745a     0x2  Data  Gb  buffer-management.o [46]
emMallocSize            0x20007efc     0x4  Data  Gb  buffer-malloc.o [46]
emMarkAmalgamateQueue   0x00009105    0x58  Code  Gb  buffer-management.o [46]
emMarkAssignedRipIds    0x0000d12d    0xf8  Code  Gb  rip.o [46]
emMarkBuffer            0x00008ff1    0x7a  Code  Gb  buffer-management.o [46]
emMarkBufferPointer     0x00009a89    0x52  Code  Gb  buffer-management.o [46]
emMarkDhcpAddressTableBuffers
                        0x0000b4fd     0x6  Code  Gb  dhcp-address-table.o [39]
emMarkDtlsJoinBuffers   0x0000c771     0x8  Code  Gb  dtls-join.o [46]
emMarkFragmentBuffers   0x0000a6b1     0x8  Code  Gb  fragment.o [46]
emMarkMacArbiterBuffers
                        0x00009afd    0x30  Code  Gb  mac-arbiter.o [46]
emMarkMacIndirectBuffers
                        0x00009ecd     0x8  Code  Gb  mac-indirect.o [46]
emMarkRetryBuffers      0x0000a449    0x24  Code  Gb  retry.o [46]
emMarkTaskActive        0x0001787f     0xe  Code  Gb  event-control.o [46]
emMarkTftpBootloaderBuffers
                        0x00028855     0x6  Code  Gb  tftp-bootloader-server.o [35]
emMarkTlsState          0x0001e3cd    0x42  Code  Gb  tls-record-util.o [46]
emMarkUdpBuffers        0x0000aecd    0xae  Code  Gb  udp.o [46]
emMarkWakeupBuffers     0x0000b21d     0x2  Code  Gb  wakeup-stubs.o [46]
emMatchingPrefixBitLength
                        0x00006259    0x48  Code  Gb  byte-utilities.o [46]
emMaxEndDeviceChildren  0x2000619c     0x1  Data  Gb  ember-ip-configuration.o [34]
emMaybeAddChild         0x0001040f    0x4c  Code  Gb  child-data.o [46]
emMaybeClearRoute       0x000194e9    0x2e  Code  Gb  rip-neighbor.o [46]
emMaybeFinishDatasetShuffle
                        0x0001575f    0x2c  Code  Gb  commission-dataset.o [46]
emMaybeHastenRipAdvertisement
                        0x0000d2a7    0x2e  Code  Gb  rip.o [46]
emMemoryByteCompare     0x000061e5    0x1e  Code  Gb  byte-utilities.o [46]
emMergeBuffers          0x000099dd    0x3c  Code  Gb  buffer-management.o [46]
emMergeNetworkData      0x00016fef   0x168  Code  Gb  network-data.o [46]
emMergeTlvs             0x000162fb    0x92  Code  Gb  commission-dataset.o [46]
emMeshLocalIdentifier   0x2000777c     0x8  Data  Gb  ip-address.o [46]
emMfglibMode            0x20007694     0x1  Data  Gb  phy-common.o [46]
emMfglibRxCallback      0x20007b74     0x4  Data  Gb  ip-mac-receive.o [46]
emMfglibTransmitComplete
                        0x20007695     0x1  Data  Gb  phy-common.o [46]
emMgmtActiveScanComplete
                        0x000145f9    0x58  Code  Gb  commission.o [46]
emMgmtActiveScanHandler
                        0x000145bb    0x3e  Code  Gb  commission.o [46]
emMgmtEnergyScanComplete
                        0x0001450f     0x6  Code  Gb  commission.o [46]
emMgmtEnergyScanHandler
                        0x000144f5    0x1a  Code  Gb  commission.o [46]
emMinDelayTimer         0x200065ac     0x4  Data  Gb  commission-dataset.o [46]
emMinDowngradeNeighbors
                        0x20006626     0x1  Data  Gb  router-selection.o [46]
emMleAttachCompleteHandler
                        0x000126a1    0x1a  Code  Gb  join.o [46]
emMleIncomingMessageHandler
                        0x0000db19    0x1c  Code  Gb  mle.o [46]
emMleInit               0x0000d867     0x6  Code  Gb  mle.o [46]
emMleLurkerAcceptHandler
                        0x00011e3b    0x10  Code  Gb  join.o [46]
emMleModeIsLurker       0x0000f8bd    0x16  Code  Gb  mle.o [46]
emMleTlvPresent         0x0000d881    0x16  Code  Gb  mle.o [46]
emModifyLeaderNetworkData
                        0x00016a9f    0x6e  Code  Gb  network-data.o [46]
emMoreFragments         0x0000ae3f    0x3c  Code  Gb  fragment.o [46]
emMulticastContext      0x0001b20d     0x4  Code  Gb  context-table.o [46]
emMulticastParentCount  0x200064e0     0x1  Data  Gb  rip-neighbor.o [46]
emMulticastTable        0x20007f18     0x2  Data  Gb  multicast.o [46]
emMulticastTableInit    0x00010c0f     0xa  Code  Gb  multicast.o [46]
emMySharedKey           0x20006660     0x4  Data  Gb  tls-test-credentials.o [46]
emNeighborIsFrameCounterValid
                        0x00019c39    0x90  Code  Gb  rip-neighbor.o [46]
emNeighborLookupLongId  0x0001960b    0x3e  Code  Gb  rip-neighbor.o [46]
emNeighborResetFrameCounter
                        0x00019cc9    0x22  Code  Gb  rip-neighbor.o [46]
emNeighborSetFrameCounter
                        0x00019bf3    0x3e  Code  Gb  rip-neighbor.o [46]
emNeighborShortId       0x000195e9    0x22  Code  Gb  rip-neighbor.o [46]
emNeighborWriteMleRecords
                        0x00019d29    0xa4  Code  Gb  rip-neighbor.o [46]
emNetworkCheckIncomingQueue
                        0x00018199    0xf8  Code  Gb  dispatch.o [46]
emNetworkData           0x200077a4     0x2  Data  Gb  network-data.o [46]
emNetworkDataInit       0x00016939     0xe  Code  Gb  network-data.o [46]
emNetworkDataLengthOverhead
                        0x000165e7     0xc  Code  Gb  network-data.o [46]
emNetworkDataSize       0x000165f3    0x10  Code  Gb  network-data.o [46]
emNetworkDataTlvHasNode
                        0x00016d55    0x36  Code  Gb  network-data.o [46]
emNetworkDataTlvOverhead
                        0x000165d9     0xe  Code  Gb  network-data.o [46]
emNetworkDataTlvSize    0x00016615    0x16  Code  Gb  network-data.o [46]
emNetworkFragmentationEnabled
                        0x200065f8     0x1  Data  Gb  network-fragmentation.o [46]
emNetworkIncomingMessageHandler
                        0x00018021   0x178  Code  Gb  dispatch.o [46]
emNextNwkFrameCounter   0x20007b98     0x4  Data  Gb  802-15-4-ccm.o [46]
emNodeType              0x2000748e     0x1  Data  Gb  ip-stack.o [46]
emNoteChildTransaction  0x00010529    0x16  Code  Gb  child-data.o [46]
emNoteCoapAck           0x0000b8b5     0x6  Code  Gb  coap.o [46]
emNoteCommissionTimestamps
                        0x00015f4d    0x48  Code  Gb  commission-dataset.o [46]
emNoteEndDeviceAddressChange
                        0x00006f73    0x12  Code  Gb  global-prefix.o [46]
emNoteExternalCommissioner
                        0x00013b7f     0xc  Code  Gb  commission.o [46]
emNoteGlobalPrefix      0x00007265    0xa6  Code  Gb  global-prefix.o [46]
emNoteIdMapping         0x0001370d    0x78  Code  Gb  address-cache.o [46]
emNoteLinkQuality       0x00019b19    0x4a  Code  Gb  rip-neighbor.o [46]
emNoteMacKeyUse         0x0000fcad    0x1c  Code  Gb  distributed-key-management.o [46]
emNoteMleJoiner         0x00019ff9    0x70  Code  Gb  rip-neighbor.o [46]
emNoteMleSender         0x00019f01    0xf2  Code  Gb  rip-neighbor.o [46]
emNoteNetworkDataVersion
                        0x0001679b    0x54  Code  Gb  network-data.o [46]
emNoteSuccessfulPoll    0x0001d3c3    0x48  Code  Gb  child-aging.o [46]
emOldChannel            0x2000655c     0x1  Data  Gb  mac-arbiter.o [46]
emOpenDtlsConnection    0x0001e8ed    0x36  Code  Gb  dtls.o [46]
emOpenDtlsServer        0x0001e929    0x1a  Code  Gb  dtls.o [46]
emOutgoingLinkQuality   0x000199b1    0x10  Code  Gb  rip-neighbor.o [46]
emPacketReceivedInternalIsrCallback
                        0x00017dc5    0x42  Code  Gb  ip-mac-receive.o [46]
emParentConnectionHandle
                        0x20007609     0x1  Data  Gb  dtls-join.o [46]
emParentCostToLeader    0x20006448     0x1  Data  Gb  join.o [46]
emParentId              0x2000644a     0x2  Data  Gb  join.o [46]
emParentLongId          0x200075a4     0x8  Data  Gb  join.o [46]
emParentPriority        0x20007fd1     0x1  Data  Gb  join.o [46]
emParseCoapMessage      0x0000be8f    0xe0  Code  Gb  coap.o [46]
emParseDhcpMessage      0x0001ef3b    0xa6  Code  Gb  dhcp.o [39]
emParseInitialDtlsPacket
                        0x000216fb    0xb4  Code  Gb  tls-handshake.o [46]
emParseTlvMessage       0x00013c2d    0xd4  Code  Gb  commission.o [46]
emPartialHandshakeHash  0x0002d86d    0x28  Code  Gb  tls-handshake-crypto.o [46]
emPayloadQueueToLinkedPayload
                        0x00017b57    0x1e  Code  Gb  buffer-queue.o [46]
emPendingPollResponse   0x00009ed5     0xe  Code  Gb  mac-indirect.o [46]
emPendingReplies        0x20007490     0x2  Data  Gb  ip-stack.o [46]
emPhyCancelTransmit     0x00012cb1    0x14  Code  Gb  phy-common.o [46]
emPhyDeviceIsCoordinator
                        0x000130cf     0x8  Code  Gb  phy-common.o [46]
emPhySetCoordinator     0x000130b7    0x18  Code  Gb  phy-common.o [46]
emPhySetEui64           0x000130a5    0x12  Code  Gb  phy-common.o [46]
emPhyToMacQueueAddIsr   0x00009819    0x86  Code  Gb  buffer-management.o [46]
emPhyToMacQueueIsEmpty  0x000098c7     0x6  Code  Gb  buffer-management.o [46]
emPhyToMacQueueItemAddedCallback
                        0x00006885     0xa  Code  Gb  ip-stack.o [46]
emPhyToMacQueueRemoveHead
                        0x000098ab    0x1c  Code  Gb  buffer-management.o [46]
emPickRandomKey         0x0000fa75    0x24  Code  Gb  distributed-key-management.o [46]
emPointsIntoHeap        0x00008ed5    0x16  Code  Gb  buffer-management.o [46]
emPrepareRetriedMleMessage
                        0x0000ef45    0x32  Code  Gb  mle.o [46]
emPrepareRetryEntryForSubmission
                        0x00018b41    0x90  Code  Gb  dispatch.o [46]
emPreviousNodeId        0x200065fa     0x2  Data  Gb  network-fragmentation.o [46]
emPrintfInternal        0x00004e53   0x1de  Code  Gb  ember-printf.o [31]
emProcessCoapMessage    0x0000bfd7   0x174  Code  Gb  coap.o [46]
emProcessCommissioningMessage
                        0x0001226b    0x26  Code  Gb  join.o [46]
emProcessDhcpRelease    0x00032a41    0x4c  Code  Gb  dhcp-server.o [39]
emProcessDhcpReply      0x0001ede3   0x158  Code  Gb  dhcp.o [39]
emProcessDhcpSolicit    0x00032869   0x1c6  Code  Gb  dhcp-server.o [39]
emProcessFragment       0x0000a6e1   0x22c  Code  Gb  fragment.o [46]
emProcessIdResponse     0x000240f1    0xaa  Code  Gb  router-selection.o [46]
emProcessIncomingBeacon
                        0x000119f7   0x150  Code  Gb  join.o [46]
emProcessIncomingDiscoveryResponse
                        0x00015151    0xe4  Code  Gb  commission.o [46]
emProcessIncomingJoinBeacon
                        0x00011b47     0x2  Code  Gb  join.o [46]
emProcessJpakeServerKeyExchange
                        0x0002d62b    0x1a  Code  Gb  tls-jpake.o [46]
emProcessMacCommand     0x00009dcf    0xc4  Code  Gb  mac-arbiter.o [46]
emProcessMleParentResponse
                        0x000126c5   0x28a  Code  Gb  join.o [46]
emProcessNetworkDataChangeRequest
                        0x00016bf9    0x76  Code  Gb  network-data.o [46]
emProcessRipNeighborTlv
                        0x0000d4a3   0x1d8  Code  Gb  rip.o [46]
emProcessTftpBootloaderPacket
                        0x00028a19    0x2a  Code  Gb  tftp-bootloader-server.o [35]
emProcessTftpPacket     0x00028577   0x14e  Code  Gb  tftp-server.o [35]
emProcessTransmitState  0x00017da5     0x2  Code  Gb  mac-efr32.o [46]
emProcessWakeupMessage  0x0000b21f     0x4  Code  Gb  wakeup-stubs.o [46]
emProvisioningUrl       0x200074fc    0x10  Data  Gb  commission.o [46]
emProvisioningUrlLength
                        0x200074e1     0x1  Data  Gb  commission.o [46]
emRadioAddressMatchingEnabled
                        0x0001306b     0x8  Code  Gb  phy-common.o [46]
emRadioAlwaysUseZeroBackoff
                        0x20007697     0x1  Data  Gb  phy-common.o [46]
emRadioAutoAckEnabled   0x0001309d     0x8  Code  Gb  phy-common.o [46]
emRadioChannel          0x200064a9     0x1  Data  Gb  phy.o [46]
emRadioConvertRssiToEd  0x00012b75    0x24  Code  Gb  phy-common.o [46]
emRadioEnableAddressMatching
                        0x00013031    0x3a  Code  Gb  phy-common.o [46]
emRadioEnableAutoAck    0x00013073    0x2a  Code  Gb  phy-common.o [46]
emRadioEnablePacketTrace
                        0x0001316d    0x1a  Code  Gb  phy-common.o [46]
emRadioEnablePta        0x00012ef5    0x7a  Code  Gb  phy-common.o [46]
emRadioEnableReceiveCrc
                        0x00013117    0x4e  Code  Gb  phy-common.o [46]
emRadioEnergyDetection  0x0001301b    0x16  Code  Gb  phy-common.o [46]
emRadioGetEdCcaThreshold
                        0x000131dd     0x8  Code  Gb  phy-common.o [46]
emRadioGetIdleMode      0x00012ecf     0x8  Code  Gb  phy-common.o [46]
emRadioGetNodeId        0x000130ef     0x8  Code  Gb  phy-common.o [46]
emRadioGetPanId         0x000130f7     0x8  Code  Gb  phy-common.o [46]
emRadioGetPowerStatus   0x00012e79     0x8  Code  Gb  phy-common.o [46]
emRadioGetRandomNumbers
                        0x00019109    0x16  Code  Gb  phy.o [46]
emRadioHoldOffIsActive  0x0001911f     0x6  Code  Gb  phy.o [46]
emRadioHoldOffIsr       0x00019125    0x3e  Code  Gb  phy.o [46]
emRadioInit             0x00012f6f    0xac  Code  Gb  phy-common.o [46]
emRadioIsReceivingFrame
                        0x00019163     0x4  Code  Gb  phy.o [46]
emRadioLastOutgoingCommand
                        0x200064a2     0x1  Data  Gb  phy-common.o [46]
emRadioMacTimerDelayExpired
                        0x20007699     0x1  Data  Lc  phy-common.o [46]
emRadioOkToIdle         0x00012eab    0x24  Code  Gb  phy-common.o [46]
emRadioPowerFem         0x00013469    0x18  Code  Gb  phy-common.o [46]
emRadioPowerFl          0x200064aa     0x2  Data  Gb  phy.o [46]
emRadioReceiveCrcEnabled
                        0x00013165     0x8  Code  Gb  phy-common.o [46]
emRadioReceiveMacHeaderCallback
                        0x00022bef   0x324  Code  Gb  ip-mac-header.o [46]
emRadioSeedRandom       0x00013541    0x12  Code  Gb  phy-util.o [46]
emRadioSetEdCcaThreshold
                        0x00013187    0x4a  Code  Gb  phy-common.o [46]
emRadioSetIdleMode      0x00012ed7    0x1e  Code  Gb  phy-common.o [46]
emRadioSetNodeId        0x000130d7    0x18  Code  Gb  phy-common.o [46]
emRadioSetPanId         0x000130ff    0x18  Code  Gb  phy-common.o [46]
emRadioSetPowerStatus   0x00012e81    0x2a  Code  Lc  phy-common.o [46]
emRadioSleep            0x00012cc5    0xd4  Code  Gb  phy-common.o [46]
emRadioTransmit         0x00012b99   0x10c  Code  Gb  phy-common.o [46]
emRadioTransmitCompleteCallback
                        0x00017cb5    0x92  Code  Gb  mac-efr32.o [46]
emRadioTxAckIsrCallback
                        0x00017d47    0x3a  Code  Gb  mac-efr32.o [46]
emRadioTxPowerMode      0x20006498     0x2  Data  Gb  phy-common.o [46]
emRadioWakeUp           0x00012e51    0x28  Code  Gb  phy-common.o [46]
emRadioWakeUpForTx      0x00012d99    0xae  Code  Lc  phy-common.o [46]
emRandomizeMacExtendedId
                        0x20006446     0x1  Data  Gb  join.o [46]
emReadAndProcessRecord  0x00020fa9   0x15e  Code  Gb  tls-handshake.o [46]
emReadCommissioningDatasetTokens
                        0x00015795    0x34  Code  Gb  commission-dataset.o [46]
emReadMeshHeader        0x0001e057    0x4c  Code  Gb  6lowpan-header.o [46]
emReallyAllocateBuffer  0x0000971d    0xa8  Code  Gb  buffer-management.o [46]
emReallyCopyToLinkedBuffers
                        0x000098e9    0x56  Code  Gb  buffer-management.o [46]
emReallyFetchIpv6Header
                        0x0002206d    0x6c  Code  Gb  transport-header.o [46]
emReallyFillBuffer      0x000097f1    0x28  Code  Gb  buffer-management.o [46]
emReallyResetTftp       0x0002e5f9    0x16  Code  Gb  tftp.o [35]
emReallyStopScan        0x0001c9c7    0x3a  Code  Gb  scan.o [46]
emReallyStoreIpv6Header
                        0x000220d9    0x5c  Code  Gb  transport-header.o [46]
emReallySubmitIpHeader  0x0001895f    0x8e  Code  Gb  dispatch.o [46]
emReceiveRawPacket      0x00017e07    0x50  Code  Gb  ip-mac-receive.o [46]
emReclaimBuffers        0x200063f8     0x1  Data  Gb  ip-stack.o [46]
emReclaimUnusedBuffers  0x0000906b    0x16  Code  Gb  buffer-management.o [46]
emReclaimUnusedBuffersAndAmalgamate
                        0x0000915d   0x3a2  Code  Gb  buffer-management.o [46]
emRelayedJoinMessageHandler
                        0x0000cb05    0x3c  Code  Gb  dtls-join.o [46]
emRemoveBytesFromGenericQueue
                        0x00017aad    0x48  Code  Gb  buffer-queue.o [46]
emRemoveCommissioner    0x000152e5    0x1c  Code  Gb  commission.o [46]
emRemoveConnection      0x0001e61d     0xa  Code  Gb  connection.o [46]
emRemoveRipEntry        0x00019437    0x5a  Code  Gb  rip-neighbor.o [46]
emRemoveUnusedConnections
                        0x0001e627    0x3a  Code  Gb  connection.o [46]
emReportTcpStatus       0x0001e481    0xa6  Code  Gb  connection.o [46]
emResetChildsTimer      0x0001d39b    0x28  Code  Gb  child-aging.o [46]
emResetFragmentPointer  0x0000aeb5     0xc  Code  Gb  fragment.o [46]
emResetKeys             0x0000f9b1    0x14  Code  Gb  distributed-key-management.o [46]
emResetNetworkState     0x00006b45    0x9e  Code  Gb  ip-stack.o [46]
emResetNwkFrameCounter  0x0000fdb1     0xe  Code  Gb  802-15-4-ccm.o [46]
emResetRipTable         0x0000cfc5    0x6e  Code  Gb  rip.o [46]
emResetTftp             0x0002e74f     0x4  Code  Gb  tftp-15-4.o [35]
emResetTftpServer       0x00028525     0xc  Code  Gb  tftp-server.o [35]
emRestoreKeys           0x0000f9c5    0x3e  Code  Gb  distributed-key-management.o [46]
emRestoreMulticastSequence
                        0x00010ca3    0x18  Code  Gb  multicast.o [46]
emRestoreTlsSession     0x0002d551    0x8a  Code  Gb  tls-session-state.o [46]
emRetryInit             0x0000a509     0xe  Code  Gb  retry.o [46]
emRetrySubmit           0x0000a4db    0x2e  Code  Gb  retry.o [46]
emRetryTransmit         0x0000a517    0x1e  Code  Gb  retry.o [46]
emRetryTransmitComplete
                        0x0000a535    0x84  Code  Gb  retry.o [46]
emRetryTransmitCompleteCallback
                        0x00018df5    0x16  Code  Gb  dispatch.o [46]
emRipIdSequenceNumber   0x20007fd9     0x1  Data  Gb  rip.o [46]
emRipInit               0x0000cfa5    0x20  Code  Gb  rip.o [46]
emRipLinkCost           0x00019b63    0x40  Code  Gb  rip-neighbor.o [46]
emRipLookupNextHop      0x0000d713    0x76  Code  Gb  rip.o [46]
emRipNeighborInit       0x000196f9    0x12  Code  Gb  rip-neighbor.o [46]
emRipTable              0x200077b0   0x280  Data  Gb  rip.o [46]
emRipTableCount         0x20007fda     0x1  Data  Gb  rip.o [46]
emRouterDowngradeThreshold
                        0x20006625     0x1  Data  Gb  router-selection.o [46]
emRouterIndex           0x00019517    0x2a  Code  Gb  rip-neighbor.o [46]
emRouterOrLurkerIndexByLongId
                        0x0001954f    0x44  Code  Gb  rip-neighbor.o [46]
emRouterRebootSuccess   0x000129e9    0x58  Code  Gb  join.o [46]
emRouterSelectionJitterMs
                        0x20006628     0x4  Data  Gb  router-selection.o [46]
emRouterUpgradeThreshold
                        0x20006624     0x1  Data  Gb  router-selection.o [46]
emRssiToLinkMargin      0x00019957     0xe  Code  Gb  rip-neighbor.o [46]
emRunHandshake          0x00021d9d    0xca  Code  Gb  tls-handshake.o [46]
emSaveDataset           0x000160c7    0x68  Code  Gb  commission-dataset.o [46]
emSaveNetwork           0x00006dad    0xae  Code  Gb  ip-stack.o [46]
emSavedTlsSessions      0x20007fc0     0x2  Data  Gb  tls-session-state.o [46]
emScanCommandTransmitCompleteIsr
                        0x0001cc85    0x64  Code  Gb  scan.o [46]
emScanEvent             0x20006488     0xc  Data  Gb  scan.o [46]
emScanReturn            0x00011d11   0x12a  Code  Gb  join.o [46]
emScanTimerIsr          0x0001cb51    0xa4  Code  Gb  scan.o [46]
emSecurityExtendedId    0x200075b4     0x8  Data  Gb  join.o [46]
emSecurityIncrementOutgoingFrameCounter
                        0x0000fd93    0x18  Code  Gb  802-15-4-ccm.o [46]
emSecurityInit          0x0000fdcb    0x22  Code  Gb  802-15-4-ccm.o [46]
emSecurityReadFrameCounterToken
                        0x0000fd7b    0x18  Code  Gb  802-15-4-ccm.o [46]
emSecurityToUart        0x20007441     0x1  Data  Gb  dispatch.o [46]
emSendAddressErrorNotification
                        0x00023a47    0x54  Code  Gb  address-management.o [46]
emSendAddressQuery      0x000239b5    0x38  Code  Gb  address-management.o [46]
emSendAddressSolicitOrRelease
                        0x00023aa5    0xc8  Code  Gb  address-management.o [46]
emSendDhcpMessage       0x0001ece5    0xb6  Code  Gb  dhcp.o [39]
emSendDhcpSolicit       0x00029b3d    0x40  Code  Gb  dhcp-client.o [39]
emSendIcmpErrorMessage  0x00026f2d    0x2c  Code  Gb  icmp.o [46]
emSendIcmpErrorMessageToDest
                        0x00026f59    0x28  Code  Gb  icmp.o [46]
emSendIcmpMessage       0x00026eb1    0x7c  Code  Gb  icmp.o [46]
emSendJoinerEntrust     0x00014035   0x114  Code  Gb  commission.o [46]
emSendJpakeServerKeyExchange
                        0x0002d5e1    0x4a  Code  Gb  tls-jpake.o [46]
emSendMleAdvertisement  0x0000efd9    0x2e  Code  Gb  mle.o [46]
emSendMleAnnounce       0x0000f17d    0x90  Code  Gb  mle.o [46]
emSendMleAnnounceFromActiveDataset
                        0x0000f217    0x28  Code  Gb  mle.o [46]
emSendMleAnnounceOnChannel
                        0x00015901    0x12  Code  Gb  commission-dataset.o [46]
emSendMleChildIdRequest
                        0x0000f109    0x70  Code  Gb  mle.o [46]
emSendMleChildReboot    0x0000f273    0x38  Code  Gb  mle.o [46]
emSendMleChildUpdate    0x0000f23f    0x2a  Code  Gb  mle.o [46]
emSendMleDiscoveryRequest
                        0x0000f2ed    0x78  Code  Gb  mle.o [46]
emSendMleParentRequest  0x0000f01d    0x4e  Code  Gb  mle.o [46]
emSendMleRequest        0x0000ef77    0x50  Code  Gb  mle.o [46]
emSendMleRouterIdVerifyRequest
                        0x0000efc7    0x12  Code  Gb  mle.o [46]
emSendNetworkData       0x0000e8e5    0xb4  Code  Gb  mle.o [46]
emSendNetworkDataRequest
                        0x0000f371    0x18  Code  Gb  mle.o [46]
emSendNodeServerData    0x0001114b    0xa2  Code  Gb  local-server-data.o [46]
emSendTcpDataToApp      0x0001e671    0x30  Code  Gb  connection.o [46]
emSendTftpAck           0x00028531    0x2c  Code  Gb  tftp-server.o [35]
emSendTftpPacket        0x0002e709    0x38  Code  Gb  tftp-15-4.o [35]
emSerialTransmitCallback
                        0x20007444     0x4  Data  Gb  dispatch.o [46]
emSetActiveDataset      0x00015711    0x34  Code  Gb  commission-dataset.o [46]
emSetActiveDatasetTlvs  0x00016509     0x4  Code  Gb  commission-dataset.o [46]
emSetAllSleepyChildFlags
                        0x000102ff    0x36  Code  Gb  child-data.o [46]
emSetAllThreadNodesMulticastAddresses
                        0x000052c1    0x20  Code  Gb  ip-address.o [46]
emSetAttachComplete     0x00011799     0xa  Code  Gb  join.o [46]
emSetBufferLength       0x0000956d    0x8e  Code  Gb  buffer-management.o [46]
emSetBufferLengthFromEnd
                        0x000095fb    0x54  Code  Gb  buffer-management.o [46]
emSetBufferLink         0x00009677    0x34  Code  Gb  buffer-management.o [46]
emSetChildAddresses     0x000105df   0x18e  Code  Gb  child-data.o [46]
emSetCommissionState    0x00013e4f    0xc6  Code  Gb  commission.o [46]
emSetCommissioningMacKey
                        0x00012241     0xc  Code  Gb  join.o [46]
emSetDefaultGlobalPrefix
                        0x000073e1    0x2e  Code  Gb  global-prefix.o [46]
emSetExtendedPanId      0x00011f95     0xc  Code  Gb  join.o [46]
emSetGatewayDhcpAddressTimeout
                        0x0001f36f    0x12  Code  Gb  dhcp.o [39]
emSetIncomingMleState   0x00019877    0x20  Code  Gb  rip-neighbor.o [46]
emSetIncomingTransportHeaderLength
                        0x00022135    0x26  Code  Gb  transport-header.o [46]
emSetIslandId           0x000233c1    0x2e  Code  Gb  network-fragmentation.o [46]
emSetJoinComplete       0x0001178f     0xa  Code  Gb  join.o [46]
emSetKeySequenceDelta   0x0000fb77    0x34  Code  Gb  distributed-key-management.o [46]
emSetLeaderData         0x0001676d    0x2e  Code  Gb  network-data.o [46]
emSetLegacyUla          0x00007431     0x2  Code  Gb  global-prefix.o [46]
emSetMacExtendedId      0x00013579    0x14  Code  Gb  eui64.o [46]
emSetMacExtendedIdToEui64
                        0x00013577     0x2  Code  Gb  eui64.o [46]
emSetMacForwardingDestination
                        0x0001ceb3    0x96  Code  Gb  ip-packet-header.o [46]
emSetMacLongDestination
                        0x0001ce77    0x14  Code  Gb  ip-packet-header.o [46]
emSetMacShortDestination
                        0x0001ce43    0x28  Code  Gb  ip-packet-header.o [46]
emSetMeshLocalIdentifierFromLongId
                        0x000050ad     0x4  Code  Gb  ip-address.o [46]
emSetNetworkDataSize    0x00016603    0x12  Code  Gb  network-data.o [46]
emSetNetworkDataTlvLength
                        0x00016b0d    0xec  Code  Gb  network-data.o [46]
emSetNetworkId          0x00011ff5    0x28  Code  Gb  join.o [46]
emSetNetworkKeySequence
                        0x0000fa99    0xbe  Code  Gb  distributed-key-management.o [46]
emSetNetworkMasterKey   0x0000fa2f    0x46  Code  Gb  distributed-key-management.o [46]
emSetNetworkStatus      0x00006909    0x3c  Code  Gb  ip-stack.o [46]
emSetNodeId             0x000068cb    0x10  Code  Gb  ip-stack.o [46]
emSetNodeType           0x000065c9    0x7a  Code  Gb  ip-stack.o [46]
emSetOldChannelForAttach
                        0x000122e1     0xe  Code  Gb  join.o [46]
emSetOutgoingLinkQuality
                        0x00019ae7    0x14  Code  Gb  rip-neighbor.o [46]
emSetPanId              0x000068df     0x4  Code  Gb  ip-stack.o [46]
emSetPendingDatasetTlvs
                        0x0001650d     0x4  Code  Gb  commission-dataset.o [46]
emSetPermitJoin         0x00011e85    0x16  Code  Gb  join.o [46]
emSetPhyRadioChannel    0x0001916f    0x60  Code  Gb  phy.o [46]
emSetPhyRadioPower      0x000191f1     0x8  Code  Gb  phy.o [46]
emSetPhyRadioPowerFl    0x00019201    0x1e  Code  Gb  phy.o [46]
emSetRadioPower         0x000068e3     0x4  Code  Gb  ip-stack.o [46]
emSetReservedBufferSpace
                        0x000096e1    0x34  Code  Gb  buffer-management.o [46]
emSetSleepyBroadcast    0x0001c3d1    0x26  Code  Gb  jit.o [46]
emSetTftpBootloaderRemoteAddress
                        0x0002ea89    0x2a  Code  Gb  tftp-bootloader.o [35]
emSetTransportChecksum  0x00018af7    0x4a  Code  Gb  dispatch.o [46]
emSetupNextJoinState    0x00011ceb    0x26  Code  Gb  join.o [46]
emSha256Finish          0x00022595    0x70  Code  Gb  sha256.o [46]
emSha256Hash            0x0002260d    0x2a  Code  Gb  sha256.o [46]
emSha256HashBytes       0x00022531    0x64  Code  Gb  sha256.o [46]
emSha256HmacFinish      0x00022697    0x30  Code  Gb  sha256.o [46]
emSha256HmacHash        0x000226c7    0x36  Code  Gb  sha256.o [46]
emSha256Start           0x00022415     0xe  Code  Gb  sha256.o [46]
emShortInterfaceIdPrefix
                        0x00005688     0x8  Data  Gb  ip-address.o [46]
emShuffleActiveDatasetToPending
                        0x0001600d    0x24  Code  Gb  commission-dataset.o [46]
emShufflePendingDatasetToActive
                        0x00016001     0xc  Code  Gb  commission-dataset.o [46]
emSleepyBroadcastHeader
                        0x20007f26     0x2  Data  Gb  jit.o [46]
emSplitBuffer           0x00009a19    0x70  Code  Gb  buffer-management.o [46]
emStackCoapPort         0x200063ec     0x2  Data  Gb  transport-header.o [46]
emStackConfiguration    0x20007492     0x2  Data  Gb  ip-stack.o [46]
emStackEventQueue       0x20007494    0x10  Data  Gb  ip-stack.o [46]
emStackTask             0x2000748d     0x1  Data  Gb  ip-stack.o [46]
emStandAloneEncryptBlock
                        0x00023d1f    0x14  Code  Gb  aes.o [46]
emStartActiveDataset    0x0001612f    0xb4  Code  Gb  commission-dataset.o [46]
emStartActiveDatasetFromParameters
                        0x000161e3    0xda  Code  Gb  commission-dataset.o [46]
emStartAppCommissioning
                        0x0001506d    0xca  Code  Gb  commission.o [46]
emStartAttach           0x00012321    0x40  Code  Gb  join.o [46]
emStartBeacons          0x00011fa5    0x42  Code  Gb  join.o [46]
emStartConnectionTimerMs
                        0x0001e443    0x34  Code  Gb  connection.o [46]
emStartConnectionTimerQs
                        0x0001e429    0x1a  Code  Gb  connection.o [46]
emStartEndDeviceRebootTimer
                        0x00012a41    0x40  Code  Gb  join.o [46]
emStartJoinClient       0x0000cc79    0xc6  Code  Gb  dtls-join.o [46]
emStartLeaderTimeout    0x00023371    0x26  Code  Gb  network-fragmentation.o [46]
emStartNewIsland        0x00023411    0x74  Code  Gb  network-fragmentation.o [46]
emStartPolling          0x0001d239    0x28  Code  Gb  child-aging.o [46]
emStartRip              0x0000d381    0x44  Code  Gb  rip.o [46]
emStartRouterRebootTimer
                        0x000129b7    0x2a  Code  Gb  join.o [46]
emStartRouterSelection  0x000240d3    0x1e  Code  Gb  router-selection.o [46]
emStartScan             0x0001c925    0x50  Code  Gb  scan.o [46]
emSteeringDataMatch     0x00013b5d    0x22  Code  Gb  commission.o [46]
emStopLeaderTimeout     0x00023397     0x6  Code  Gb  network-fragmentation.o [46]
emStopRip               0x0000d3cb    0x18  Code  Gb  rip.o [46]
emStopScan              0x0001c985    0x42  Code  Gb  scan.o [46]
emStoreDefaultGlobalPrefix
                        0x00006eed    0x18  Code  Gb  global-prefix.o [46]
emStoreDefaultIpAddress
                        0x00005225    0x24  Code  Gb  ip-address.o [46]
emStoreGp16             0x00005195     0xe  Code  Gb  ip-address.o [46]
emStoreInt32u           0x0000617f    0x1c  Code  Gb  byte-utilities.o [46]
emStoreInt48u           0x0000619b    0x22  Code  Gb  byte-utilities.o [46]
emStoreIpSourceAddress  0x000070b3    0x96  Code  Gb  global-prefix.o [46]
emStoreIpv6Header       0x0001e025    0x32  Code  Gb  6lowpan-header.o [46]
emStoreLegacyUla        0x00006f21     0x2  Code  Gb  global-prefix.o [46]
emStoreLocalMl64        0x000051bd    0x10  Code  Gb  ip-address.o [46]
emStoreLongFe8Address   0x000051e1    0x1e  Code  Gb  ip-address.o [46]
emStoreMulticastSequence
                        0x00010c87    0x1c  Code  Gb  multicast.o [46]
emStoreShortInterfaceId
                        0x000050bd    0x1e  Code  Gb  ip-address.o [46]
emStoreTftpFileChunk    0x00028965    0x2a  Code  Gb  tftp-bootloader-server.o [35]
emStoreUdpHeader        0x000222f1    0x3a  Code  Gb  transport-header.o [46]
emStrcmp                0x00006245    0x14  Code  Gb  byte-utilities.o [46]
emStringToUnsignedInt   0x00027961    0x86  Code  Gb  command-interpreter2-util.o [12]
emStrlen                0x00006219    0x2c  Code  Gb  byte-utilities.o [46]
emSubmitCoapMessage     0x0000bc31   0x1be  Code  Gb  coap.o [46]
emSubmitDtlsPayload     0x0001e72f    0xa2  Code  Gb  dtls.o [46]
emSubmitIndirectOrRetry
                        0x000189ed    0xfa  Code  Gb  dispatch.o [46]
emSubmitRelayedJoinPayload
                        0x0000cb41    0x32  Code  Gb  dtls-join.o [46]
emSubtractInt48uCounters
                        0x0001e211    0x2e  Code  Gb  tls-record-util.o [46]
emSynthFreqOffset       0x20007fd7     0x1  Data  Gb  phy.o [46]
emTaskCount             0x00033d7c     0x1  Data  Gb  ember-ip-configuration.o [34]
emTaskDetermineNextEvent
                        0x00017763    0x28  Code  Lc  event-control.o [46]
emTaskEnableIdling      0x0001788d     0x6  Code  Gb  event-control.o [46]
emTasks                 0x20006978    0x24  Data  Gb  ember-ip-configuration.o [34]
emTcpConnectionTimeout  0x00026faf     0x2  Code  Gb  tcp-stub.o [46]
emTcpSendTlsRecord      0x00026fa9     0x2  Code  Gb  tcp-stub.o [46]
emTftpBlockNumber       0x20006176     0x2  Data  Gb  tftp.o [35]
emTftpBlockSize         0x20006178     0x2  Data  Gb  tftp.o [35]
emTftpBootloaderRemoteAddress
                        0x20006cde     0x2  Data  Gb  tftp-bootloader.o [35]
emTftpListen            0x0002e60f    0x6a  Code  Gb  tftp.o [35]
emTftpListenStatusHandler
                        0x0002e74d     0x2  Code  Gb  tftp-15-4.o [35]
emTftpLocalTid          0x20006174     0x2  Data  Gb  tftp.o [35]
emTftpRemoteIp          0x200067ac    0x10  Data  Gb  tftp.o [35]
emTftpRemoteTid         0x20006172     0x2  Data  Gb  tftp.o [35]
emTftpScripting         0x20006170     0x1  Data  Gb  tftp.o [35]
emTftpServerStatusHandler
                        0x00028951    0x14  Code  Gb  tftp-bootloader-server.o [35]
emTimestampGreater      0x0001599b    0x2a  Code  Gb  commission-dataset.o [46]
emTlsProcessIncoming    0x0002a339   0x1d2  Code  Gb  tls-ccm-record.o [46]
emTlsSendAlarm          0x0001e1b3    0x3c  Code  Gb  tls-record-util.o [46]
emTlsSendBuffer         0x0002a2d7    0x56  Code  Gb  tls-ccm-record.o [46]
emTlsSendBufferedApplicationData
                        0x0001e157    0x5c  Code  Gb  tls-record-util.o [46]
emTlsSetState           0x00021e71    0x36  Code  Gb  tls-handshake.o [46]
emTlsStatusHandler      0x00026fb1     0x4  Code  Gb  tcp-stub.o [46]
emTokenLength           0x00027939     0xe  Code  Gb  command-interpreter2-util.o [12]
emTokenPointer          0x00027929    0x10  Code  Gb  command-interpreter2-util.o [12]
emTrackNextEvent        0x0001770d    0x26  Code  Lc  event-control.o [46]
emTransportChecksum     0x000221c3    0xb0  Code  Gb  transport-header.o [46]
emTrickleMulticastInterval
                        0x20006504     0x1  Data  Gb  multicast.o [46]
emTruncateTlsStateBuffer
                        0x0001e39d    0x30  Code  Gb  tls-record-util.o [46]
emUdpCommissionPort     0x20006474     0x2  Data  Gb  dtls-join.o [46]
emUdpJoinPort           0x20006472     0x2  Data  Gb  dtls-join.o [46]
emUdpSendDtlsRecord     0x0001e897    0x4e  Code  Gb  dtls.o [46]
emUnassignRipId         0x000197e3    0x76  Code  Gb  rip-neighbor.o [46]
emUnassignShortId       0x000136f5    0x18  Code  Gb  address-cache.o [46]
emUncompressContextPrefix
                        0x0001b141    0x52  Code  Gb  context-table.o [46]
emUnicastTable          0x20007b5c    0x10  Data  Gb  unicast-table.o [46]
emUnicastTableInit      0x000101ed     0x4  Code  Gb  unicast-table.o [46]
emUnmarshallDataset     0x00015ca9    0xba  Code  Gb  commission-dataset.o [46]
emUnsecuredPassthroughPort
                        0x200077a6     0x2  Data  Gb  dispatch.o [46]
emUpdateChildSequenceDeltas
                        0x00010881    0x3c  Code  Gb  child-data.o [46]
emUpdateIncomingLinkQuality
                        0x00019a03    0xd4  Code  Gb  rip-neighbor.o [46]
emUpdateNeighborSequenceDeltas
                        0x00019ceb    0x3a  Code  Gb  rip-neighbor.o [46]
emUpdateNetworkData     0x00016cad    0xa8  Code  Gb  network-data.o [46]
emUpdateOutgoingFlight  0x0002a50b    0xdc  Code  Gb  tls-ccm-record.o [46]
emUseMleDiscovery       0x20006445     0x1  Data  Gb  join.o [46]
emUseParentLongId       0x20007fe7     0x1  Data  Gb  command.o [46]
emUsePresharedTlsSessionState
                        0x20007fbe     0x1  Data  Gb  tls-session-state.o [46]
emVectorAdd             0x00017c13    0x52  Code  Gb  buffer-queue.o [46]
emVectorRef             0x00017bd7    0x34  Code  Gb  buffer-queue.o [46]
emVectorSearch          0x00017b75    0x5c  Code  Gb  buffer-queue.o [46]
emVerifyLocalServerData
                        0x00011063    0x4a  Code  Gb  local-server-data.o [46]
emWakeupKeepIncomingPacketIsr
                        0x0000b227     0x4  Code  Gb  wakeup-stubs.o [46]
emWakeupMessageFrameCounter
                        0x0000b223     0x4  Code  Gb  wakeup-stubs.o [46]
emWriteCurrentTime      0x00006b17    0x18  Code  Gb  ip-stack.o [46]
emWriteHexInternal      0x00004dd1    0x2a  Code  Gb  ember-printf.o [31]
emZigbeeNetworkSecurityLevel
                        0x200061a5     0x1  Data  Gb  ember-ip-configuration.o [34]
emberActiveScanHandler  0x00023d61    0xee  Code  Gb  scan-debug.o [29]
emberAddSteeringEui64   0x0001533b    0x22  Code  Gb  commission.o [46]
emberAddressConfigurationChangeHandler
                        0x0001aedd    0x34  Code  Gb  address-configuration-debug.o [5]
emberAfCoapDispatchTable
                        0x00034c18    0x20  Data  Gb  thread-coap-dispatch.o [1]
emberAfFlush            0x00004dbd    0x14  Code  Gb  debug-print.o [13]
emberAfInitCallback     0x0001c2d7     0x2  Code  Gb  thread-callback-stubs.o [1]
emberAfMainCallback     0x0001c2d5     0x2  Code  Gb  thread-callback-stubs.o [1]
emberAfMarkApplicationBuffersCallback
                        0x0001c2d3     0x2  Code  Gb  thread-callback-stubs.o [1]
emberAfNetworkStatusCallback
                        0x0001a16d    0x86  Code  Gb  client-implementation.o [1]
emberAfOkToIdle         0x0001923d     0x4  Code  Gb  thread-bookkeeping.o [1]
emberAfOkToSleep        0x00019235     0x4  Code  Gb  thread-bookkeeping.o [1]
emberAfPluginCliTickCallback
                        0x00027c7d    0x20  Code  Gb  cli.o [9]
emberAfPluginHeartbeatTickCallback
                        0x00027cad    0x20  Code  Gb  heartbeat.o [21]
emberAfPluginHumiditySi7021ReadEventControl
                        0x2000720c     0x8  Data  Gb  humidity-temperature-si7021.o [3]
emberAfPluginIdleSleepActive
                        0x00019241     0x4  Code  Gb  thread-bookkeeping.o [1]
emberAfPluginIdleSleepActiveCallback
                        0x0001c2d1     0x2  Code  Gb  thread-callback-stubs.o [1]
emberAfPluginIdleSleepOkToIdleCallback
                        0x0001c2cd     0x4  Code  Gb  thread-callback-stubs.o [1]
emberAfPluginIdleSleepOkToSleepCallback
                        0x0001c2c7     0x4  Code  Gb  thread-callback-stubs.o [1]
emberAfPluginIdleSleepTickCallback
                        0x00027ccd    0xa8  Code  Gb  idle-sleep.o [25]
emberAfPluginIdleSleepWakeUp
                        0x00019239     0x4  Code  Gb  thread-bookkeeping.o [1]
emberAfPluginIdleSleepWakeUpCallback
                        0x0001c2cb     0x2  Code  Gb  thread-callback-stubs.o [1]
emberAfPluginTemperatureSi7021ReadEventControl
                        0x20007214     0x8  Data  Gb  humidity-temperature-si7021.o [3]
emberAfPrint            0x00004cbd     0xc  Code  Gb  debug-print.o [13]
emberAfPrintActiveArea  0x200063ea     0x2  Data  Gb  debug-print.o [13]
emberAfPrintBigEndianEui64
                        0x00004d4f     0x4  Code  Gb  debug-print.o [13]
emberAfPrintBuffer      0x00004d39    0x16  Code  Gb  debug-print.o [13]
emberAfPrintCharacters  0x00004d2b     0xe  Code  Gb  debug-print.o [13]
emberAfPrintEnabled     0x00004c79    0x1e  Code  Gb  debug-print.o [13]
emberAfPrintExtendedPanId
                        0x00004d53     0x2  Code  Gb  debug-print.o [13]
emberAfPrintIpv6Address
                        0x00004d79     0xe  Code  Gb  debug-print.o [13]
emberAfPrintIpv6Prefix  0x00004d87     0xc  Code  Gb  debug-print.o [13]
emberAfPrintln          0x00004cc9     0xa  Code  Gb  debug-print.o [13]
emberAfTftpBootloaderInit
                        0x00027c69    0x14  Code  Gb  tftp-bootload.o [35]
emberAfTickCallback     0x0001c2d9     0x2  Code  Gb  thread-callback-stubs.o [1]
emberAllocateMemoryForPacketHandler
                        0x0001c365     0x4  Code  Gb  thread-callback-stubs.o [1]
emberAttachToNetwork    0x00011635    0x26  Code  Gb  join.o [46]
emberAttachToNetworkReturn
                        0x0001c371     0x2  Code  Gb  thread-callback-stubs.o [1]
emberBecomeCommissioner
                        0x0001549f    0x48  Code  Gb  commission.o [46]
emberBecomeCommissionerReturn
                        0x0001c373     0x2  Code  Gb  thread-callback-stubs.o [1]
emberCalibrateCurrentChannel
                        0x0001916b     0x4  Code  Gb  phy.o [46]
emberCancelAllEvents    0x0000b535    0x34  Code  Gb  event-queue.o [46]
emberChildId            0x0001080f    0x1c  Code  Gb  child-data.o [46]
emberChildIndex         0x0001d12d    0x38  Code  Gb  child-table.o [46]
emberChildLongIndex     0x0001d165    0x60  Code  Gb  child-table.o [46]
emberChildTableSize     0x2000617a     0x1  Data  Gb  ember-ip-configuration.o [34]
emberCoapDecodeUri      0x0000c2ff    0x12  Code  Gb  coap.o [46]
emberCoapDecodedUriLength
                        0x0000c2f9     0x6  Code  Gb  coap.o [46]
emberCoapEncodeUri      0x0000bc19    0x18  Code  Gb  coap.o [46]
emberCoapIsRequest      0x0000c311     0xc  Code  Gb  coap.o [46]
emberCoapMessageHandler
                        0x0002a641    0xac  Code  Gb  coap-dispatch.o [11]
emberCoapRespond        0x0000c23d     0x6  Code  Gb  coap.o [46]
emberCoapSend           0x0000bdf9    0x4c  Code  Gb  coap.o [46]
emberCoapSendUri        0x0000be4d    0x42  Code  Gb  coap.o [46]
emberCommandArgumentCount
                        0x0002791d     0xc  Code  Gb  command-interpreter2-util.o [12]
emberCommandCoapTable   0x00034994    0x48  Data  Lc  thread-cli.o [1]
emberCommandErrorHandler
                        0x0002f711    0x2a  Code  Gb  command-interpreter2-error.o [12]
emberCommandErrorNames  0x0002f8a8    0x20  Data  Gb  command-interpreter2-error.o [12]
emberCommandIcmpTable   0x000349dc    0x24  Data  Lc  thread-cli.o [1]
emberCommandNetworkManagementCommissioningTable
                        0x00034a00    0x24  Data  Lc  thread-cli.o [1]
emberCommandNetworkManagementScanTable
                        0x00034a24    0x30  Data  Lc  thread-cli.o [1]
emberCommandNetworkManagementSteeringTable
                        0x00034a54    0x24  Data  Lc  thread-cli.o [1]
emberCommandNetworkManagementTable
                        0x00034a78    0xd8  Data  Lc  thread-cli.o [1]
emberCommandReaderInit  0x0002790d    0x10  Code  Gb  command-interpreter2-util.o [12]
emberCommandTable       0x00034b74    0x90  Data  Gb  thread-cli.o [1]
emberCommandUdpTable    0x00034b50    0x24  Data  Lc  thread-cli.o [1]
emberCommissionNetwork  0x000121bd    0x84  Code  Gb  join.o [46]
emberCommissionNetworkReturn
                        0x0001c375     0x2  Code  Gb  thread-callback-stubs.o [1]
emberCommissionerStatusHandler
                        0x0001c377     0x2  Code  Gb  thread-callback-stubs.o [1]
emberConfigureGateway   0x00010d05   0x19c  Code  Gb  local-server-data.o [46]
emberConfigureGatewayReturn
                        0x0001c379     0x2  Code  Gb  thread-callback-stubs.o [1]
emberConfigureNetwork   0x000114dd    0x2c  Code  Gb  join.o [46]
emberCopyLinkedBuffers  0x00009959    0x1a  Code  Gb  buffer-management.o [46]
emberCounterHandler     0x0001c37b     0x2  Code  Gb  thread-callback-stubs.o [1]
emberCounterValueHandler
                        0x0001c37d     0x4  Code  Gb  thread-callback-stubs.o [1]
emberDebugAssert        0x0000899d     0xa  Code  Gb  debug.o [46]
emberDebugPrintf        0x00008a19    0x38  Code  Gb  debug.o [46]
emberDebugReportRestore
                        0x00008a13     0x6  Code  Gb  debug.o [46]
emberDhcpServerChangeHandler
                        0x0001b009    0x3a  Code  Gb  dhcp-client.o [14]
emberDiagnosticAnswerHandler
                        0x0001c36d     0x2  Code  Gb  thread-callback-stubs.o [1]
emberEndDevicePollTimeout
                        0x200061a4     0x1  Data  Gb  ember-ip-configuration.o [34]
emberEnergyScanHandler  0x00023e63     0xa  Code  Gb  scan-debug.o [29]
emberEui64              0x000068fb     0x6  Code  Gb  ip-stack.o [46]
emberEventDelayUpdatedFromIsrHandler
                        0x0001c381     0x2  Code  Gb  thread-callback-stubs.o [1]
emberEventGetRemainingMs
                        0x0000b571    0x2a  Code  Gb  event-queue.o [46]
emberEventIsScheduled   0x0000b569     0x8  Code  Gb  event-queue.o [46]
emberEventSetDelayMs    0x0000b6cb    0xa0  Code  Gb  event-queue.o [46]
emberEventSetInactive   0x0000b76b    0x5c  Code  Gb  event-queue.o [46]
emberExternalRouteChangeHandler
                        0x0001c383     0x2  Code  Gb  thread-callback-stubs.o [1]
emberFetchHighLowInt16u
                        0x00006163     0xc  Code  Gb  byte-utilities.o [46]
emberFetchLowHighInt16u
                        0x00006155     0xe  Code  Gb  byte-utilities.o [46]
emberFinishCoapMessage  0x0001f5d5   0x198  Code  Gb  coap-stack.o [46]
emberFormNetwork        0x0001150f    0x6c  Code  Gb  join.o [46]
emberFormNetworkReturn  0x0001c385     0x2  Code  Gb  thread-callback-stubs.o [1]
emberFreeMemoryForPacketHandler
                        0x0001c369     0x2  Code  Gb  thread-callback-stubs.o [1]
emberGetCommissioner    0x00015239    0xac  Code  Gb  commission.o [46]
emberGetExtendedPanIdArgument
                        0x00027b79    0x1a  Code  Gb  command-interpreter2-util.o [12]
emberGetGlobalAddressReturn
                        0x00019281    0x22  Code  Gb  global-address-prefix-debug.o [19]
emberGetGlobalAddresses
                        0x00006a79    0x5c  Code  Gb  ip-stack.o [46]
emberGetGlobalPrefixReturn
                        0x000192a3    0x24  Code  Gb  global-address-prefix-debug.o [19]
emberGetGlobalPrefixes  0x00006ad5    0x42  Code  Gb  ip-stack.o [46]
emberGetIpv6AddressArgument
                        0x00027b93    0x16  Code  Gb  command-interpreter2-util.o [12]
emberGetIpv6PrefixArgument
                        0x00027ba9    0x1a  Code  Gb  command-interpreter2-util.o [12]
emberGetLinkedBuffersByte
                        0x0000993f     0xc  Code  Gb  buffer-management.o [46]
emberGetLinkedBuffersLowHighInt16u
                        0x00009973    0x20  Code  Gb  buffer-management.o [46]
emberGetLocalIpAddress  0x00006a0b    0x6e  Code  Gb  ip-stack.o [46]
emberGetNestedCommand   0x00027bc3    0x20  Code  Gb  command-interpreter2-util.o [12]
emberGetNetworkParameters
                        0x00006945    0xc6  Code  Gb  ip-stack.o [46]
emberGetNodeId          0x000068c7     0x4  Code  Gb  ip-stack.o [46]
emberGetPanId           0x000068db     0x4  Code  Gb  ip-stack.o [46]
emberGetRadioChannel    0x000068f7     0x4  Code  Gb  ip-stack.o [46]
emberGetStringArgument  0x00027b0d    0x6c  Code  Gb  command-interpreter2-util.o [12]
emberGetVersions        0x0003195d    0x22  Code  Gb  ember-ip-configuration.o [34]
emberGetVersionsReturn  0x00004bd1    0x62  Code  Gb  version-debug.o [37]
emberHexToInt           0x000062e7    0x1e  Code  Gb  byte-utilities.o [46]
emberIcmpListen         0x00032223     0x4  Code  Gb  icmp-simple.o [46]
emberIncomingIcmpHandler
                        0x00026fb5    0x98  Code  Gb  icmp-debug.o [24]
emberInit               0x00006761    0x98  Code  Gb  ip-stack.o [46]
emberInitReturn         0x0000b327    0x28  Code  Gb  main.o [27]
emberIpIncomingBeaconHandler
                        0x0001c36f     0x2  Code  Gb  thread-callback-stubs.o [1]
emberIpPing             0x00032179    0xaa  Code  Gb  icmp-simple.o [46]
emberIpv6AddressToString
                        0x000054b1     0xc  Code  Gb  ip-address.o [46]
emberIpv6PrefixToString
                        0x000054bd     0x8  Code  Gb  ip-address.o [46]
emberIpv6StringToAddress
                        0x0000567f     0x6  Code  Gb  ip-address.o [46]
emberIpv6StringToPrefix
                        0x00005685     0x4  Code  Gb  ip-address.o [46]
emberJoinCommissioned   0x0001157b    0x5e  Code  Gb  join.o [46]
emberJoinNetwork        0x000115d9    0x4c  Code  Gb  join.o [46]
emberJoinNetworkReturn  0x0001a301    0x1c  Code  Gb  client-implementation.o [1]
emberLeaderDataHandler  0x0001c38d     0x2  Code  Gb  thread-callback-stubs.o [1]
emberMacIndirectTimeout
                        0x2000619e     0x2  Data  Gb  ember-ip-configuration.o [34]
emberMacPassthroughFilterHandler
                        0x0001c387     0x4  Code  Gb  thread-callback-stubs.o [1]
emberMacPassthroughMessageHandler
                        0x0001c38b     0x2  Code  Gb  thread-callback-stubs.o [1]
emberMarkApplicationBuffersHandler
                        0x0000b351    0x10  Code  Gb  main.o [27]
emberMarkEventQueue     0x0000b6a1    0x2a  Code  Gb  event-queue.o [46]
emberMsToNextEvent      0x000177d5     0x4  Code  Gb  event-control.o [46]
emberMsToNextEventExtended
                        0x0001778b    0x4a  Code  Gb  event-control.o [46]
emberMsToNextQueueEvent
                        0x0000b62d    0x18  Code  Gb  event-queue.o [46]
emberNetworkStatus      0x00006901     0x8  Code  Gb  ip-stack.o [46]
emberNetworkStatusHandler
                        0x0001927d     0x4  Code  Gb  thread-bookkeeping.o [1]
emberPollForDataReturn  0x0001c38f     0x2  Code  Gb  thread-callback-stubs.o [1]
emberPollHandler        0x0001c36b     0x2  Code  Gb  thread-callback-stubs.o [1]
emberPrintCommandTable  0x0002f6d9    0x1a  Code  Gb  command-interpreter2-error.o [12]
emberPrintCommandUsage  0x0002f68d    0x32  Code  Gb  command-interpreter2-error.o [12]
emberPrintCommandUsageNotes
                        0x0002f6bf    0x14  Code  Gb  command-interpreter2-error.o [12]
emberProcessCommandString
                        0x0002e22d   0x192  Code  Gb  command-interpreter2.o [12]
emberRadioNeedsCalibratingHandler
                        0x0001c399     0x4  Code  Gb  thread-callback-stubs.o [1]
emberRequestDhcpAddress
                        0x00029b7d    0x40  Code  Gb  dhcp-client.o [39]
emberRequestDhcpAddressReturn
                        0x0001b043    0x36  Code  Gb  dhcp-client.o [14]
emberRequestSlaacAddress
                        0x000071f1    0x6c  Code  Gb  global-prefix.o [46]
emberRequestSlaacAddressReturn
                        0x0001af6f    0x36  Code  Gb  slaac-client.o [33]
emberResetMicro         0x00006c43     0x4  Code  Gb  ip-stack.o [46]
emberResetMicroHandler  0x0000b34f     0x2  Code  Gb  main.o [27]
emberResetNetworkState  0x00006bef     0xa  Code  Gb  ip-stack.o [46]
emberResetNetworkStateReturn
                        0x0001a56d     0xa  Code  Gb  client-implementation.o [1]
emberResumeNetwork      0x00006c6d   0x114  Code  Gb  ip-stack.o [46]
emberResumeNetworkReturn
                        0x0001a1f3    0x28  Code  Gb  client-implementation.o [1]
emberRetryCoapMessage   0x0001f777    0x40  Code  Gb  coap-stack.o [46]
emberReverseMemCopy     0x00006203    0x16  Code  Gb  byte-utilities.o [46]
emberRunEventQueue      0x0000b645    0x5c  Code  Gb  event-queue.o [46]
emberRunEvents          0x000177d9    0x30  Code  Gb  event-control.o [46]
emberRunTask            0x00017809    0x28  Code  Gb  event-control.o [46]
emberRxPacket           0x200076d8    0x90  Data  Gb  phy-common.o [46]
emberScanReturn         0x00023e6d     0xa  Code  Gb  scan-debug.o [29]
emberSendSteeringData   0x00015363    0x4c  Code  Gb  commission.o [46]
emberSendSteeringDataReturn
                        0x0001c391     0x2  Code  Gb  thread-callback-stubs.o [1]
emberSendUdp            0x0001eb85    0x4a  Code  Gb  udp-simple.o [46]
emberSerialBufferTick   0x00005741     0x2  Code  Gb  serial.o [31]
emberSerialGuaranteedPrintf
                        0x0000571b    0x1e  Code  Gb  serial.o [31]
emberSerialInit         0x00005699    0x66  Code  Gb  serial.o [31]
emberSerialPrintCarriageReturn
                        0x00005049     0x4  Code  Gb  ember-printf.o [31]
emberSerialPrintf       0x0000506d    0x10  Code  Gb  ember-printf.o [31]
emberSerialPrintfLine   0x00005051    0x1c  Code  Gb  ember-printf.o [31]
emberSerialPrintfVarArg
                        0x0000507d     0xa  Code  Gb  ember-printf.o [31]
emberSerialReadAvailable
                        0x000056ff     0x4  Code  Gb  serial.o [31]
emberSerialReadByte     0x00005703     0xa  Code  Gb  serial.o [31]
emberSerialUnused       0x00005743     0x4  Code  Gb  serial.o [31]
emberSerialWaitSend     0x00005711     0xa  Code  Gb  serial.o [31]
emberSerialWriteUsed    0x0000570d     0x4  Code  Gb  serial.o [31]
emberSetBeaconSteeringData
                        0x00011ea7    0xa6  Code  Gb  join.o [46]
emberSetJoinKey         0x0000cbe7    0x80  Code  Gb  dtls-join.o [46]
emberSetJoiningMode     0x00015301    0x3a  Code  Gb  commission.o [46]
emberSetLinkedBuffersByte
                        0x0000994b     0xe  Code  Gb  buffer-management.o [46]
emberSetLinkedBuffersLowHighInt16u
                        0x00009993    0x20  Code  Gb  buffer-management.o [46]
emberSetSecurityParameters
                        0x0000fcc9    0x2a  Code  Gb  distributed-key-management.o [46]
emberSetSecurityParametersReturn
                        0x0001c393     0x2  Code  Gb  thread-callback-stubs.o [1]
emberSetTxPowerMode     0x00019167     0x4  Code  Gb  phy.o [46]
emberSignedCommandArgument
                        0x00027a37    0x60  Code  Gb  command-interpreter2-util.o [12]
emberSlaacServerChangeHandler
                        0x0001af35    0x3a  Code  Gb  slaac-client.o [33]
emberSleepyChildPollTimeout
                        0x200061a0     0x4  Data  Gb  ember-ip-configuration.o [34]
emberStackIdleTimeMs    0x000067f9    0x42  Code  Gb  ip-stack.o [46]
emberStackPowerDown     0x0000688f    0x22  Code  Gb  ip-stack.o [46]
emberStackPowerUp       0x000068b9     0xe  Code  Gb  ip-stack.o [46]
emberStartScan          0x0001c875    0xb0  Code  Gb  scan.o [46]
emberStopCommissioning  0x00015507    0x1e  Code  Gb  commission.o [46]
emberStopScan           0x0001c975    0x10  Code  Gb  scan.o [46]
emberStoreHighLowInt16u
                        0x00006177     0x8  Code  Gb  byte-utilities.o [46]
emberStoreLowHighInt16u
                        0x0000616f     0x8  Code  Gb  byte-utilities.o [46]
emberStringCommandArgument
                        0x00027aab    0x5c  Code  Gb  command-interpreter2-util.o [12]
emberSwitchToNextNetworkKey
                        0x0000fcf3    0x34  Code  Gb  distributed-key-management.o [46]
emberSwitchToNextNetworkKeyHandler
                        0x0001c395     0x2  Code  Gb  thread-callback-stubs.o [1]
emberSwitchToNextNetworkKeyReturn
                        0x0001c397     0x2  Code  Gb  thread-callback-stubs.o [1]
emberTaskInit           0x00017831    0x4e  Code  Gb  event-control.o [46]
emberTcpAcceptHandler   0x0001c39d     0x2  Code  Gb  thread-callback-stubs.o [1]
emberTcpReadHandler     0x0001c39f     0x2  Code  Gb  thread-callback-stubs.o [1]
emberTcpRemoteIpAddress
                        0x00026fab     0x4  Code  Gb  tcp-stub.o [46]
emberTcpStatusHandler   0x0001c3a1     0x2  Code  Gb  thread-callback-stubs.o [1]
emberTick               0x00006843    0x38  Code  Gb  ip-stack.o [46]
emberUdpHandler         0x0001a577    0x42  Code  Gb  client-implementation.o [1]
emberUdpHandlerAlias    0x0001a105    0x62  Code  Gb  client-implementation.o [1]
emberUdpListen          0x0001ebcf     0x4  Code  Gb  udp-simple.o [46]
emberUdpMulticastHandler
                        0x0001c3a3    0x10  Code  Gb  thread-callback-stubs.o [1]
emberUnsignedCommandArgument
                        0x000279e7    0x50  Code  Gb  command-interpreter2-util.o [12]
emberVerifyBootloadRequest
                        0x0001a5b9     0x4  Code  Gb  client-implementation.o [1]
emberVersion            0x00033d80     0xc  Data  Gb  ember-ip-configuration.o [34]
emuRestore              0x00028dcf    0xa0  Code  Lc  em_emu.o [17]
enableRxIrq             0x00005899    0x94  Code  Lc  com.o [31]
encodePathAndQuery      0x0000bbb1    0x68  Code  Lc  coap.o [46]
encryptBytes            0x0000feaf    0x46  Code  Lc  802-15-4-ccm.o [46]
encryptNonce            0x0000fded    0x28  Code  Lc  802-15-4-ccm.o [46]
endMessage              0x00008bf3    0x16  Code  Lc  debug.o [46]
energyReportHandler     0x0001451d    0x1c  Code  Lc  commission.o [46]
energyScanChannelMask   0x20007520     0x4  Data  Lc  commission.o [46]
energyScanCount         0x2000750c     0x1  Data  Lc  commission.o [46]
energyScanExponent      0x2000750d     0x1  Data  Lc  commission.o [46]
energyScanHandler       0x00014451    0x9a  Code  Lc  commission.o [46]
energyScanMaxRssiDetected
                        0x2000767d     0x1  Data  Lc  scan.o [46]
energyScanNextChannel   0x2000750f     0x1  Data  Lc  commission.o [46]
energyScanPeriodMs      0x20007514     0x2  Data  Lc  commission.o [46]
energyScanResultCount   0x2000750e     0x1  Data  Lc  commission.o [46]
erased                  0x20007f08     0x1  Data  Lc  sim-eeprom-internal.o [45]
errataCallback          0x00027dfd    0xa4  Code  Lc  tempdrv.o [16]
errataFixDcdcHsState    0x20007f00     0x1  Data  Gb  em_emu.o [17]
errataHighTemp          0x200063c8    0x20  Data  Lc  tempdrv.o [16]
errataLowTemp           0x200063a8    0x20  Data  Lc  tempdrv.o [16]
errataState             0x20007fc7     0x1  Data  Gb  tempdrv.o [16]
eventActions            0x20007674     0x1  Data  Lc  scan.o [46]
eventStartTime          0x20007f1c     0x2  Data  Lc  fragment.o [46]
eventStartTime          0x20007aa4     0x4  Data  Lc  retry.o [46]
eventStartTimeMs        0x20007bc8     0x4  Data  Lc  connection.o [46]
executeTimerCallbacks   0x000298db    0x20  Code  Lc  rtcdriver.o [16]
expandPointerNoCheck    0x00008f09    0x10  Code  Lc  buffer-management.o [46]
extensionNextHeaders    0x200064e8     0x8  Data  Lc  6lowpan-header.o [46]
failedReports           0x20007410     0x1  Data  Lc  client-implementation.o [1]
failureResponse         0x00014303     0xa  Code  Lc  commission.o [46]
failureTlv              0x00014960     0x4  Data  Lc  commission.o [46]
fault                   0x00032245          Code  Gb  faults-v7m.o [20]
fetchChannelMask        0x0001443d    0x14  Code  Lc  commission.o [46]
fetchCoapOption         0x0000bb3b    0x76  Code  Lc  coap.o [46]
fetchIpv6Header         0x0001d46d    0x36  Code  Lc  6lowpan-header.o [46]
fetchSensorData         0x00020319    0x4a  Code  Gb  sensor_control.o [30]
fillBlock0              0x0000d7f5    0x2e  Code  Lc  mle.o [46]
filterParentRequestLongId
                        0x20007a44     0x8  Data  Lc  mle.o [46]
find6lowpanContext      0x0001b0d9    0x34  Code  Lc  context-table.o [46]
findEntry               0x00010a45    0x52  Code  Lc  multicast.o [46]
findGlobalAddressEntry  0x00006f85    0x74  Code  Lc  global-prefix.o [46]
findNodeInSubTlv        0x00010f9d    0x16  Code  Lc  local-server-data.o [46]
findRetryEvent          0x0000b89b    0x1a  Code  Lc  coap.o [46]
findRouteTlv            0x000174c3    0x54  Code  Lc  network-data.o [46]
finishMessage           0x0000ede1   0x164  Code  Lc  mle.o [46]
fixedEepromInfo         0x20006cf4    0x18  Data  Gb  bootloader-interface-app.o [18]
flashWaitStateControl   0x0001b29b    0x3a  Code  Lc  em_cmu.o [17]
formChannelCache        0x2000758e     0x1  Data  Lc  join.o [46]
formEnergyScanComplete  0x00012109    0x74  Code  Lc  join.o [46]
formFailed              0x000120dd    0x28  Code  Lc  join.o [46]
formpacket              0x00028069    0x54  Code  Gb  B2Bprotocol.o [2]
forwardJoinerDtlsEncap  0x00014ebd    0xcc  Code  Lc  commission.o [46]
forwardResponseToCommissioner
                        0x00014b57    0x62  Code  Lc  commission.o [46]
forwardToLeader         0x00014bcd    0x5a  Code  Lc  commission.o [46]
fragmentTimeoutEvent    0x20006518     0xc  Data  Lc  fragment.o [46]
fragmentTimeoutEventActions
                        0x000350d0    0x10  Data  Lc  fragment.o [46]
fragmentTimeoutEventHandler
                        0x0000aac1    0x86  Code  Lc  fragment.o [46]
frameDetCount           0x20007c24     0x4  Data  Lc  ieee802154_phy.o [46]
framePendingSetInOutgoingAck
                        0x20007696     0x1  Data  Lc  phy-common.o [46]
freePtr                 0x20007f0a     0x2  Data  Lc  sim-eeprom-internal.o [45]
freq                    0x20007150     0x4  Data  Lc  ustimer.o [16]
gPaConfig               0x20007768     0x8  Data  Gb  pa.o [46]
gainValues              0x20007c28     0x4  Data  Lc  ieee802154_phy.o [46]
generateCreatorInfo     0x00025f19    0x22  Code  Lc  sim-eeprom-internal.o [45]
generateMeshLocalIdentifier
                        0x000113f9    0x2e  Code  Lc  join.o [46]
genericResponseHandler  0x00015361     0x2  Code  Lc  commission.o [46]
getCapabilityByte       0x0000d7c1    0x2a  Code  Lc  mle.o [46]
getChildOrNeighborShortId
                        0x000135b3    0x52  Code  Lc  address-cache.o [46]
getDatasetTlvData       0x0001583f    0x22  Code  Lc  commission-dataset.o [46]
getDatasetTlvs          0x000163c1    0x5e  Code  Lc  commission-dataset.o [46]
getHandler              0x00015c2f    0x6e  Code  Lc  commission-dataset.o [46]
getKey                  0x0000fbab    0x48  Code  Lc  distributed-key-management.o [46]
getOptionNumber         0x0001ebd5    0x1c  Code  Lc  dhcp.o [39]
getOutputFifoSpace      0x0000587d    0x1c  Code  Lc  com.o [31]
getRegIshUpperVal       0x0001b2d5    0x10  Code  Lc  em_cmu.o [17]
getSizeInWords          0x00008f19    0x14  Code  Lc  buffer-management.o [46]
getTlvData              0x00013979    0x3a  Code  Lc  commission.o [46]
getTlvData              0x000236a5    0x1e  Code  Lc  address-management.o [46]
gpioCallbacks           0x20007080    0x40  Data  Lc  gpiointerrupt.o [16]
guardRegionPlaceHolder  0x20001780    0x20  Data  Gb  cstartup-common.o [20]
halAppAddressTable      0x00004000    0xac  Data  Gb  cstartup-common.o [20]
halAppBootloaderEraseRawStorage
                        0x0002e9c5     0x6  Code  Gb  bootloader-interface-app.o [18]
halAppBootloaderImageIsValid
                        0x0002e981    0x26  Code  Gb  bootloader-interface-app.o [18]
halAppBootloaderImageIsValidReset
                        0x0002e95d    0x24  Code  Gb  bootloader-interface-app.o [18]
halAppBootloaderInfo    0x0002e927    0x36  Code  Gb  bootloader-interface-app.o [18]
halAppBootloaderInit    0x0002e917    0x10  Code  Gb  bootloader-interface-app.o [18]
halAppBootloaderInstallNewImage
                        0x0002e9a7    0x12  Code  Gb  bootloader-interface-app.o [18]
halAppBootloaderStorageBusy
                        0x0002e9cb     0x6  Code  Gb  bootloader-interface-app.o [18]
halAppBootloaderWriteRawStorage
                        0x0002e9bf     0x6  Code  Gb  bootloader-interface-app.o [18]
halBootloaderAddressTable
                        0x00000000    0x54  Data  Gb  cstartup-common.o [20]
halBusFaultIsr          0x00032231          Code  Gb  faults-v7m.o [20]
halButtonIsr            0x0001c2c1     0x2  Code  Gb  thread-callback-stubs.o [1]
halButtonPinState       0x00028d29    0x24  Code  Gb  button.o [7]
halButtonState          0x00028ccd    0x18  Code  Gb  button.o [7]
halCommonCrc16          0x0001bfad    0x24  Code  Gb  crc.o [20]
halCommonDelayMicroseconds
                        0x0002543f     0x4  Code  Gb  micro-common-internal.o [41]
halCommonDelayMilliseconds
                        0x00025425    0x1a  Code  Gb  micro-common-internal.o [41]
halCommonGetInt16uMillisecondTick
                        0x0001bed1     0xe  Code  Gb  system-timer.o [41]
halCommonGetInt16uQuarterSecondTick
                        0x0001bedf    0x14  Code  Gb  system-timer.o [41]
halCommonGetInt32uMillisecondTick
                        0x0001bef3     0xe  Code  Gb  system-timer.o [41]
halCommonGetRandom      0x0001cd41    0x1c  Code  Gb  random.o [20]
halCommonIdleForMilliseconds
                        0x0001bf2b    0x16  Code  Gb  system-timer.o [41]
halCommonMemCompare     0x0000612f    0x18  Code  Gb  mem-util.o [20]
halCommonMemMove        0x0000605d    0x86  Code  Gb  mem-util.o [20]
halCommonMemPGMCopy     0x000060e3    0x3e  Code  Gb  mem-util.o [20]
halCommonMemSet         0x00006121     0xe  Code  Gb  mem-util.o [20]
halDebugMonitorIsr      0x0003223d          Code  Gb  faults-v7m.o [20]
halEntryPoint           0x000326e9    0x10  Code  Gb  cstartup-iar.o [41]
halEntryPointMain       0x000326f9    0xee  Code  Gb  cstartup-iar.o [41]
halGetEm2xxResetInfo    0x0001ace1    0x42  Code  Gb  micro.o [20]
halGetExtendedResetInfo
                        0x0001793b     0x6  Code  Gb  cstartup-common.o [20]
halGetExtendedResetString
                        0x0001acc5    0x14  Code  Gb  micro.o [20]
halGetResetInfo         0x00017933     0x8  Code  Gb  cstartup-common.o [20]
halGetResetString       0x0001acb9     0xc  Code  Gb  micro.o [20]
halHardFaultIsr         0x0003222d          Code  Gb  faults-v7m.o [20]
halHumidityInit         0x0002a78d     0x2  Code  Gb  humidity-temperature-si7021.o [3]
halHumidityStartRead    0x0002a813    0x14  Code  Gb  humidity-temperature-si7021.o [3]
halI2cInitialize        0x0002a6ed     0x2  Code  Gb  i2c-driver.o [22]
halI2cReadBytes         0x0002a749    0x3a  Code  Gb  i2c-driver.o [22]
halI2cWriteBytes        0x0002a6f9    0x32  Code  Gb  i2c-driver.o [22]
halInit                 0x0001abb7    0xde  Code  Gb  micro.o [20]
halInternalAssertFailed
                        0x00008ca5    0x32  Code  Gb  assert-crash-handlers.o [20]
halInternalAssertFault  0x00008ca1     0x4  Code  Lc  assert-crash-handlers.o [20]
halInternalButtonStateSet
                        0x00028ce5    0x14  Code  Gb  button.o [7]
halInternalButtonToggleState
                        0x00028cf9    0x24  Code  Gb  button.o [7]
halInternalCStackBottom
                        0x200064a4     0x4  Data  Lc  micro-internal.o [41]
halInternalClassifyReset
                        0x000178b1    0x82  Code  Gb  cstartup-common.o [20]
halInternalCrashHandler
                        0x00008cd7   0x180  Code  Gb  assert-crash-handlers.o [20]
halInternalDisableMPU   0x0002a0d3     0xe  Code  Gb  mpu.o [20]
halInternalDisableWatchDog
                        0x0001c02b    0x1c  Code  Gb  micro-common.o [20]
halInternalEm4Wakeup    0x000299ad    0x10  Code  Gb  sleep-efm32.o [20]
halInternalEnableHFXO   0x0001ab5f    0x58  Code  Gb  micro.o [20]
halInternalEnableMPU    0x0002a08d    0x24  Code  Gb  mpu.o [20]
halInternalEnableWatchDog
                        0x0001bff3    0x32  Code  Gb  micro-common.o [20]
halInternalFlashBlockRead
                        0x00025e2d    0x10  Code  Lc  sim-eeprom-internal.o [45]
halInternalFlashBlockReadSimEe2
                        0x00025e3d     0xe  Code  Gb  sim-eeprom-internal.o [45]
halInternalFlashErase   0x0002e165    0x2c  Code  Gb  flash.o [41]
halInternalFlashWrite   0x0002e1dd    0x48  Code  Gb  flash.o [41]
halInternalGetCStackBottom
                        0x0001c223     0x6  Code  Gb  micro-internal.o [41]
halInternalGetCtuneToken
                        0x0001ab29    0x36  Code  Gb  micro.o [20]
halInternalGetHeapBottom
                        0x0001c231     0x4  Code  Gb  micro-internal.o [41]
halInternalGetHeapTop   0x0001c229     0x8  Code  Gb  micro-internal.o [41]
halInternalGetMfgTokenData
                        0x000255bd    0xb2  Code  Gb  mfg-token.o [20]
halInternalGetTokenData
                        0x0001761d    0x20  Code  Gb  token.o [20]
halInternalIncrementCounterToken
                        0x00017687     0xe  Code  Gb  token.o [20]
halInternalInitButton   0x00028c6d    0x60  Code  Gb  button.o [7]
halInternalInitCStackRegion
                        0x0001c171    0x1a  Code  Gb  micro-internal.o [41]
halInternalInitLed      0x00028be9    0x2e  Code  Gb  led.o [26]
halInternalLoadMPU      0x0002a0b9    0x1a  Code  Gb  mpu.o [20]
halInternalResetWatchDog
                        0x0001c025     0x6  Code  Gb  micro-common.o [20]
halInternalSetMPUGuardRegionStart
                        0x0002a0e1    0x1a  Code  Gb  mpu.o [20]
halInternalSetMfgTokenData
                        0x0002566f    0xa2  Code  Gb  mfg-token.o [20]
halInternalSetTokenData
                        0x0001763d    0x4a  Code  Gb  token.o [20]
halInternalSimEeGetData
                        0x00026321    0x76  Code  Gb  sim-eeprom-internal.o [45]
halInternalSimEeIncrementCounter
                        0x000267f3    0x78  Code  Gb  sim-eeprom-internal.o [45]
halInternalSimEeSetData
                        0x000265f3   0x170  Code  Gb  sim-eeprom-internal.o [45]
halInternalSimEeStartup
                        0x00025c95    0xc2  Code  Gb  sim-eeprom.o [32]
halInternalSimEeStartupCore
                        0x00025ff7   0x32a  Code  Gb  sim-eeprom-internal.o [45]
halInternalSleep        0x000299e3    0xc0  Code  Gb  sleep-efm32.o [20]
halInternalStartSystemTimer
                        0x0001bf01    0x22  Code  Gb  system-timer.o [41]
halInternalSysReset     0x0001c0fd    0x74  Code  Gb  micro-internal.o [41]
halInternalSysTickIsr   0x000322b5          Code  Wk  isr-stubs.o [20]
halInternalWatchDogEnabled
                        0x0001c047    0x10  Code  Gb  micro-common.o [20]
halMemoryFaultIsr       0x00032235          Code  Gb  faults-v7m.o [20]
halNmiIsr               0x00032229          Code  Gb  faults-v7m.o [20]
halPendSvIsr            0x000322b5          Code  Wk  isr-stubs.o [20]
halPowerDown            0x0001ac9d     0x2  Code  Gb  micro.o [20]
halPowerUp              0x0001ac9f     0x2  Code  Gb  micro.o [20]
halPrintCrashData       0x0001fc31    0x5a  Code  Gb  diagnostic.o [15]
halPrintCrashDetails    0x0001fa99   0x188  Code  Gb  diagnostic.o [15]
halPrintCrashSummary    0x0001f961   0x130  Code  Gb  diagnostic.o [15]
halPtaIsEnabled         0x0001adff     0x6  Code  Gb  micro.o [20]
halPtaSetRxRequest      0x0001adaf    0x3a  Code  Gb  micro.o [20]
halPtaSetTxRequest      0x0001ad73    0x3c  Code  Gb  micro.o [20]
halRadioPowerDownHandler
                        0x0001c2c5     0x2  Code  Gb  thread-callback-stubs.o [1]
halRadioPowerUpHandler  0x0001c2c3     0x2  Code  Gb  thread-callback-stubs.o [1]
halReboot               0x0001ac95     0x8  Code  Gb  micro.o [20]
halReserved07Isr        0x000322b5          Code  Wk  isr-stubs.o [20]
halReserved08Isr        0x000322b5          Code  Wk  isr-stubs.o [20]
halReserved09Isr        0x000322b5          Code  Wk  isr-stubs.o [20]
halReserved10Isr        0x000322b5          Code  Wk  isr-stubs.o [20]
halReserved13Isr        0x000322b5          Code  Wk  isr-stubs.o [20]
halReserved50Isr        0x000322b5          Code  Wk  isr-stubs.o [20]
halReserved51Isr        0x000322b5          Code  Wk  isr-stubs.o [20]
halReserved52Isr        0x000322b5          Code  Wk  isr-stubs.o [20]
halReserved53Isr        0x000322b5          Code  Wk  isr-stubs.o [20]
halReserved54Isr        0x000322b5          Code  Wk  isr-stubs.o [20]
halReserved55Isr        0x000322b5          Code  Wk  isr-stubs.o [20]
halResetInfo            0x20000000    0x9c  Data  Gb  cstartup-common.o [20]
halSimEepromCallback    0x0001c2db    0x84  Code  Gb  thread-callback-stubs.o [1]
halSimEepromErasePage   0x0002686b    0x78  Code  Gb  sim-eeprom-internal.o [45]
halSleep                0x00029abd     0x2  Code  Gb  sleep-efm32.o [20]
halSleepForMilliseconds
                        0x0001bf95     0x8  Code  Gb  system-timer.o [41]
halStackDebugActive     0x00008727     0xc  Code  Gb  debug-jtag.o [46]
halStackInitTokens      0x000175d9    0x44  Code  Gb  token.o [20]
halStackModifyCStackSize
                        0x0001c18b    0x98  Code  Gb  micro-internal.o [41]
halStackOrderInt16uSymbolDelayA
                        0x00017daf     0xa  Code  Gb  mac-efr32.o [46]
halStackRadioPowerDownBoard
                        0x0001aca1     0x6  Code  Gb  micro.o [20]
halStackRadioPowerMainControl
                        0x0001acad     0xc  Code  Gb  micro.o [20]
halStackRadioPowerUpBoard
                        0x0001aca7     0x6  Code  Gb  micro.o [20]
halStackSeedRandom      0x0001cd19    0x18  Code  Gb  random.o [20]
halStackSymbolDelayAIsr
                        0x0000ce8f    0x46  Code  Gb  mac.o [46]
halSvCallIsr            0x000322b5          Code  Wk  isr-stubs.o [20]
halTemperatureStartRead
                        0x0002a82d    0x1a  Code  Gb  humidity-temperature-si7021.o [3]
halToggleAntenna        0x00026a21     0x4  Code  Gb  antenna-stub.o [6]
halToggleLed            0x00028c17    0x22  Code  Gb  led.o [26]
halUsageFaultIsr        0x00032239          Code  Gb  faults-v7m.o [20]
handleCommissionPost    0x000148df    0x80  Code  Lc  commission.o [46]
handlerMap              0x00025bac    0x90  Data  Lc  coap-diagnostic-stack.o [46]
hashBytes               0x00022423   0x10e  Code  Lc  sha256.o [46]
haveActiveDatasetCache  0x20007aa8     0x1  Data  Lc  commission-dataset.o [46]
haveBlacklistedIslandId
                        0x20007baa     0x1  Data  Lc  network-fragmentation.o [46]
haveIdSequenceNumber    0x20007fdb     0x1  Data  Lc  rip.o [46]
haveIslandId            0x20007ba8     0x1  Data  Lc  network-fragmentation.o [46]
haveKeys                0x20007620     0x1  Data  Lc  distributed-key-management.o [46]
haveMeshLocalUlaPrefix  0x200074b0     0x1  Data  Lc  global-prefix.o [46]
haveNetworkData         0x200077a0     0x1  Data  Lc  network-data.o [46]
haveOldKeys             0x20007621     0x1  Data  Lc  distributed-key-management.o [46]
haveStableNetworkData   0x200064f4     0x1  Data  Lc  network-data.o [46]
headerIsToParent        0x00018c97    0x66  Code  Gb  dispatch.o [46]
heapMemory              0x20000000  0x1770  Data  Gb  ember-ip-configuration.o [34]
heapPointer             0x20007470     0x4  Data  Lc  buffer-management.o [46]
helloVerifyRequestMessage
                        0x00021ee0    0x1c  Data  Lc  tls-handshake.o [46]
highCallback            0x200070f0     0x4  Data  Lc  tempdrv.o [16]
historyTable            0x20007784     0x2  Data  Lc  coap.o [46]
hopLimits               0x0001e100     0x4  Data  Lc  6lowpan-header.o [46]
i2cConfig               0x20006304    0x18  Data  Gb  i2c-driver.o [22]
i2cNSum                 0x00030ccc     0x4  Data  Lc  em_i2c.o [22]
i2cTransfer             0x20006cc4     0xc  Data  Lc  em_i2c.o [22]
icmpListenCommand       0x00032051    0x34  Code  Gb  icmp-cli.o [23]
icmpPingCommand         0x00032085    0x8c  Code  Gb  icmp-cli.o [23]
idInUse                 0x000103e7    0x28  Code  Lc  child-data.o [46]
idleRadio               0x20007fe3     0x1  Data  Gb  mac.o [46]
ieee802154SeqProg       0x00032f00   0xe48  Data  Gb  ieee802154_annotated.o [46]
ieee802154SeqProg_size  0x00033d48     0x4  Data  Gb  ieee802154_annotated.o [46]
ieee802154_config_2415MHz_min
                        0x00035840     0xc  Data  Gb  ieee802154_configurator_out.o [46]
ieee802154_config_2420MHz_min
                        0x0003584c    0x1c  Data  Gb  ieee802154_configurator_out.o [46]
ieee802154_config_base  0x00035618   0x204  Data  Gb  ieee802154_configurator_out.o [46]
ieee802154_config_base_min
                        0x0003581c    0x24  Data  Gb  ieee802154_configurator_out.o [46]
inTimerIRQ              0x2000638c     0x1  Data  Lc  rtcdriver.o [16]
incomingIcmpMessage     0x00018835    0x3a  Code  Lc  dispatch.o [46]
incomingMessageHandler  0x0000db51   0xb2e  Code  Lc  mle.o [46]
incrementNextId         0x000196e5    0x14  Code  Lc  rip-neighbor.o [46]
indirectPool            0x20007f2a     0x2  Data  Lc  mac-indirect.o [46]
initRTCC                0x20006380     0xc  Data  Lc  rtcdriver.o [16]
initRTCCCompareChannel  0x200063a0     0x8  Data  Lc  rtcdriver.o [16]
initTimeMs              0x20006cb0     0x4  Data  Lc  main.o [27]
initialState            0x000226fc    0x20  Data  Lc  sha256.o [46]
initializeNetwork       0x00006649   0x118  Code  Lc  ip-stack.o [46]
initializeNonce         0x0002a19d    0x2c  Code  Lc  tls-ccm-record.o [46]
initializeNonceFromAuxFrame
                        0x0000ff35    0x3a  Code  Lc  802-15-4-ccm.o [46]
initialized             0x20007fc5     0x1  Data  Lc  dmadrv.o [16]
initialized             0x20007208     0x1  Data  Lc  humidity-temperature-si7021.o [3]
initialized             0x20007b84     0x1  Data  Lc  eui64.o [46]
initilizationSmartHome  0x000202f9    0x20  Code  Gb  sensor_control.o [30]
inlineMulticastByteCounts
                        0x0001e104    0x10  Data  Lc  6lowpan-header.o [46]
inlineUnicastByteCounts
                        0x0001e114     0x4  Data  Lc  6lowpan-header.o [46]
intActiveBits           0x000200c8    0x9c  Data  Lc  diagnostic.o [15]
internalIpStart         0x0001dff1    0x20  Code  Lc  6lowpan-header.o [46]
internalSleepForMilliseconds
                        0x0001bf41    0x16  Code  Lc  system-timer.o [41]
ipv6AddressListHandler  0x000258a5    0x66  Code  Lc  coap-diagnostic-stack.o [46]
irqTriggered            0x000299bd    0x26  Code  Lc  sleep-efm32.o [20]
isHeapPointer           0x00008eeb     0xc  Code  Lc  buffer-management.o [46]
isShortInterfaceId      0x000050b1     0xc  Code  Lc  ip-address.o [46]
isUnsecuredPassthrough  0x00018299    0x58  Code  Lc  dispatch.o [46]
jPakeData               0x20007b7c     0x8  Data  Lc  jpake-ecc-mbedtls.o [43]
jitFlag                 0x20007f24     0x2  Data  Lc  jit.o [46]
joinAppHandler          0x000148a5    0x3a  Code  Lc  commission.o [46]
joinAttemptDelaySeconds
                        0x20006444     0x1  Data  Lc  join.o [46]
joinFailed              0x000117a3    0x70  Code  Lc  join.o [46]
joinFinResponseHandler  0x0001502b    0x3a  Code  Lc  commission.o [46]
joinFinalHandler        0x0001482d    0x70  Code  Lc  commission.o [46]
joinKeyPairs            0x2000760c     0x2  Data  Lc  dtls-join.o [46]
joinNetwork             0x0001a225    0xd6  Code  Lc  client-implementation.o [1]
joinTimeoutEvent        0x2000644c     0xc  Data  Lc  join.o [46]
joinTimeoutEventActions
                        0x00034d18    0x10  Data  Lc  join.o [46]
joinTimeoutEventHandler
                        0x000112cd    0xf4  Code  Lc  join.o [46]
joinTlsFlags            0x20006476     0x2  Data  Lc  dtls-join.o [46]
joinerRelayCount        0x200074e0     0x1  Data  Lc  commission.o [46]
joinerRelayRateLimitEvent
                        0x20006428     0xc  Data  Lc  commission.o [46]
joinerRelayRateLimitEventActions
                        0x00034ce4    0x10  Data  Lc  commission.o [46]
joinerRelayRateLimitEventHandler
                        0x00013be3     0xa  Code  Lc  commission.o [46]
jpakeClientHelloTailHead
                        0x00021ebc    0x18  Data  Lc  tls-handshake.o [46]
jpakeServerHelloTailHead
                        0x00021ed4     0xc  Data  Lc  tls-handshake.o [46]
jpakeSuiteIdentifier    0x000358f2     0x2  Data  Gb  tls-ccm-record.o [46]
keepAliveHandler        0x000147c1    0x4e  Code  Lc  commission.o [46]
keyGuardHours           0x2000762c     0x4  Data  Lc  distributed-key-management.o [46]
keyRotationEvent        0x20006478     0xc  Data  Lc  distributed-key-management.o [46]
keyRotationEventActions
                        0x00034d68    0x10  Data  Lc  distributed-key-management.o [46]
keyRotationEventHandler
                        0x0000fc67    0x46  Code  Lc  distributed-key-management.o [46]
keyRotationHours        0x20007628     0x4  Data  Lc  distributed-key-management.o [46]
largeTlvData            0x00013c1f     0xe  Code  Lc  commission.o [46]
largeTlvLength          0x00013c0f    0x10  Code  Lc  commission.o [46]
lastChildAgeTimeSeconds
                        0x20007a5c     0x4  Data  Lc  child-aging.o [46]
lastEventTimeMs         0x20007bc4     0x4  Data  Lc  dhcp.o [39]
lastEventTimeQS         0x20007f28     0x2  Data  Lc  mac-indirect.o [46]
lastEventTimeQs         0x20007f1a     0x2  Data  Lc  multicast.o [46]
lastStart               0x20006390     0x4  Data  Lc  rtcdriver.o [16]
lastTxSfdTime           0x200076d0     0x4  Data  Gb  phy-common.o [46]
leaderData              0x20007798     0x8  Data  Lc  network-data.o [46]
leaderDataHandler       0x00025887     0xe  Code  Lc  coap-diagnostic-stack.o [46]
leaderLongId            0x20007bbc     0x8  Data  Lc  dhcp.o [39]
leaderTimeoutEvent      0x20006600     0xc  Data  Lc  network-fragmentation.o [46]
leaderTimeoutEventActions
                        0x000352d4    0x10  Data  Lc  network-fragmentation.o [46]
leaderTimeoutEventHandler
                        0x00023321    0x50  Code  Lc  network-fragmentation.o [46]
ledArray                0x00028c44    0x10  Data  Lc  led.o [26]
left                    0x20007f09     0x1  Data  Lc  sim-eeprom-internal.o [45]
legacyUla               0x200074b4     0x8  Data  Lc  global-prefix.o [46]
lengthMemcopy           0x0000ba89    0x26  Code  Lc  coap.o [46]
lfClkGet                0x0001b2e5    0x78  Code  Lc  em_cmu.o [17]
linkCost                0x0001a0f4    0x10  Data  Lc  rip-neighbor.o [46]
linkMarginToQuality     0x00019965    0x48  Code  Lc  rip-neighbor.o [46]
localIslandId           0x20007bac     0x8  Data  Lc  network-fragmentation.o [46]
lookupAddressData       0x00013643    0x22  Code  Lc  address-cache.o [46]
lookupExternalPrefix    0x000111f5    0x5a  Code  Lc  local-server-data.o [46]
lowCallback             0x200070f4     0x4  Data  Lc  tempdrv.o [16]
m2p                     0x0001bdb4    0x10  Data  Gb  dmadrv.o [16]
macAuxFrameSize         0x000101e4     0x4  Data  Lc  802-15-4-ccm.o [46]
macBufferStatus         0x20007f2f     0x1  Data  Lc  mac-arbiter.o [46]
macHeaderDataSizes      0x000101e8     0x4  Data  Lc  802-15-4-ccm.o [46]
macIndirectEvent        0x20006550     0xc  Data  Lc  mac-indirect.o [46]
macIndirectEventActions
                        0x00035154    0x10  Data  Lc  mac-indirect.o [46]
macIndirectEventHandler
                        0x0000a189    0x36  Code  Lc  mac-indirect.o [46]
macTransmitEventActions
                        0x00035290    0x10  Data  Lc  mac.o [46]
macTransmitEventHandler
                        0x0000cda3    0xe4  Code  Lc  mac.o [46]
main                    0x0000b22d    0xfa  Code  Gb  main.o [27]
makeCommand             0x0001c5e9    0xe8  Code  Lc  command.o [46]
managementActiveGetHandler
                        0x00015ca5     0x4  Code  Lc  commission-dataset.o [46]
managementActiveSetHandler
                        0x000159f9   0x12c  Code  Lc  commission-dataset.o [46]
managementAnnounceBeginHandler
                        0x0001595b    0x40  Code  Lc  commission-dataset.o [46]
managementPendingGetHandler
                        0x00015f95     0x4  Code  Lc  commission-dataset.o [46]
managementPendingSetHandler
                        0x00015ed7    0x76  Code  Lc  commission-dataset.o [46]
markConnectionUnused    0x0001e477     0xa  Code  Lc  connection.o [46]
markFunctions           0x20007bda     0x2  Data  Lc  mark-list.o [46]
markStackBuffers        0x0000632d   0x138  Code  Lc  ip-stack.o [46]
markers                 0x0000687c     0x8  Data  Lc  ip-stack.o [46]
matchCryptoSuites       0x00021159    0x92  Code  Lc  tls-handshake.o [46]
matchEui64              0x0000b473    0x12  Code  Lc  dhcp-address-table.o [39]
matchInterfaceId        0x0000b449    0x2a  Code  Lc  dhcp-address-table.o [39]
matchLongId             0x00013605    0x26  Code  Lc  address-cache.o [46]
matchShortId            0x0001362b    0x10  Code  Lc  address-cache.o [46]
matchingPoolAddress     0x0000a2bb    0x8a  Code  Lc  mac-indirect.o [46]
maxScanTime             0x2000768c     0x4  Data  Lc  scan.o [46]
maybeSendMleMessage     0x0000e9f1   0x3ca  Code  Lc  mle.o [46]
maybeUpdateRipMetric    0x0000d3e3    0xc0  Code  Lc  rip.o [46]
mbedtls_ecjpake_derive_secret
                        0x00020d8b    0xd8  Code  Gb  ecjpake.o [43]
mbedtls_ecjpake_free    0x0002050d    0x56  Code  Gb  ecjpake.o [43]
mbedtls_ecjpake_init    0x000204b1    0x5c  Code  Gb  ecjpake.o [43]
mbedtls_ecjpake_read_round_one
                        0x00020a6b    0x34  Code  Gb  ecjpake.o [43]
mbedtls_ecjpake_read_round_two
                        0x00020b4d    0x9e  Code  Gb  ecjpake.o [43]
mbedtls_ecjpake_setup   0x00020563    0x40  Code  Gb  ecjpake.o [43]
mbedtls_ecjpake_write_round_one
                        0x00020a9f    0x46  Code  Gb  ecjpake.o [43]
mbedtls_ecjpake_write_round_two
                        0x00020c5f   0x12c  Code  Gb  ecjpake.o [43]
mbedtls_ecp_check_privkey
                        0x0002bdf9    0x30  Code  Gb  ecp.o [43]
mbedtls_ecp_check_pubkey
                        0x0002bdcd    0x28  Code  Gb  ecp.o [43]
mbedtls_ecp_copy        0x0002a95d    0x2c  Code  Gb  ecp.o [43]
mbedtls_ecp_curve_info_from_grp_id
                        0x0002a851    0x18  Code  Gb  ecp.o [43]
mbedtls_ecp_curve_info_from_tls_id
                        0x0002a869    0x1a  Code  Gb  ecp.o [43]
mbedtls_ecp_device_deinit
                        0x0002eee9    0x16  Code  Gb  sl_ecp.o [43]
mbedtls_ecp_device_grp_capable
                        0x0002ee7d     0xe  Code  Gb  sl_ecp.o [43]
mbedtls_ecp_device_init
                        0x0002ee8b    0x5e  Code  Gb  sl_ecp.o [43]
mbedtls_ecp_gen_keypair_base
                        0x0002be2d    0x8e  Code  Gb  ecp.o [43]
mbedtls_ecp_group_free  0x0002a8fd    0x60  Code  Gb  ecp.o [43]
mbedtls_ecp_group_init  0x0002a8d1     0xc  Code  Gb  ecp.o [43]
mbedtls_ecp_group_load  0x0002d147    0x60  Code  Gb  ecp_curves.o [43]
mbedtls_ecp_is_zero     0x0002a9b1    0x12  Code  Gb  ecp.o [43]
mbedtls_ecp_mul         0x0002bb81    0x4e  Code  Gb  ecp.o [43]
mbedtls_ecp_mul_shortcuts
                        0x0002bcef    0x58  Code  Lc  ecp.o [43]
mbedtls_ecp_muladd      0x0002bd4f    0x7e  Code  Gb  ecp.o [43]
mbedtls_ecp_point_cmp   0x0002a9c3    0x2e  Code  Gb  ecp.o [43]
mbedtls_ecp_point_free  0x0002a8dd    0x20  Code  Gb  ecp.o [43]
mbedtls_ecp_point_init  0x0002a8b1    0x20  Code  Gb  ecp.o [43]
mbedtls_ecp_point_mark  0x0000c629    0x18  Code  Lc  jpake-ecc-mbedtls.o [43]
mbedtls_ecp_point_read_binary
                        0x0002aa93    0x6a  Code  Gb  ecp.o [43]
mbedtls_ecp_point_write_binary
                        0x0002a9f1    0xa2  Code  Gb  ecp.o [43]
mbedtls_ecp_set_zero    0x0002a989    0x28  Code  Gb  ecp.o [43]
mbedtls_ecp_tls_read_group
                        0x0002ab5f    0x44  Code  Gb  ecp.o [43]
mbedtls_ecp_tls_read_point
                        0x0002ab03    0x2c  Code  Gb  ecp.o [43]
mbedtls_ecp_tls_write_group
                        0x0002aba3    0x32  Code  Gb  ecp.o [43]
mbedtls_ecp_tls_write_point
                        0x0002ab2f    0x30  Code  Gb  ecp.o [43]
mbedtls_md              0x0002d09b    0x16  Code  Gb  md.o [43]
mbedtls_md_get_size     0x0002d0c1     0x8  Code  Gb  md.o [43]
mbedtls_md_info_from_type
                        0x0002d085    0x16  Code  Gb  md.o [43]
mbedtls_mpi_add_abs     0x0002c3f3    0x9c  Code  Gb  bignum.o [43]
mbedtls_mpi_add_mpi     0x0002c56f    0x2e  Code  Gb  bignum.o [43]
mbedtls_mpi_bitlen      0x0002c0f3    0x32  Code  Gb  bignum.o [43]
mbedtls_mpi_cmp_abs     0x0002c2f9    0x40  Code  Gb  bignum.o [43]
mbedtls_mpi_cmp_int     0x0002c3c9    0x2a  Code  Gb  bignum.o [43]
mbedtls_mpi_cmp_mpi     0x0002c339    0x5e  Code  Gb  bignum.o [43]
mbedtls_mpi_copy        0x0002bfb5    0x4a  Code  Gb  bignum.o [43]
mbedtls_mpi_div_mod     0x0002f15b   0x160  Code  Lc  sl_ecp.o [43]
mbedtls_mpi_div_mpi     0x0002c97b   0x2de  Code  Gb  bignum.o [43]
mbedtls_mpi_fill_random
                        0x0002cdf3    0x2c  Code  Gb  bignum.o [43]
mbedtls_mpi_free        0x0002beeb    0x24  Code  Gb  bignum.o [43]
mbedtls_mpi_gcd         0x0002cceb    0xf4  Code  Gb  bignum.o [43]
mbedtls_mpi_get_bit     0x0002c0a5    0x20  Code  Gb  bignum.o [43]
mbedtls_mpi_grow        0x0002bf0f    0x44  Code  Gb  bignum.o [43]
mbedtls_mpi_init        0x0002bedd     0xe  Code  Gb  bignum.o [43]
mbedtls_mpi_inv_mod     0x0002ce1f   0x256  Code  Gb  bignum.o [43]
mbedtls_mpi_lsb         0x0002c0c5    0x2e  Code  Gb  bignum.o [43]
mbedtls_mpi_lset        0x0002c067    0x30  Code  Gb  bignum.o [43]
mbedtls_mpi_mark        0x0000c641     0xe  Code  Lc  jpake-ecc-mbedtls.o [43]
mbedtls_mpi_mod_mpi     0x0002cc7f    0x5e  Code  Gb  bignum.o [43]
mbedtls_mpi_mul_int     0x0002c961    0x1a  Code  Gb  bignum.o [43]
mbedtls_mpi_mul_mpi     0x0002c86d    0xf4  Code  Gb  bignum.o [43]
mbedtls_mpi_read_binary
                        0x0002c131    0x68  Code  Gb  bignum.o [43]
mbedtls_mpi_safe_cond_assign
                        0x0002bfff    0x50  Code  Gb  bignum.o [43]
mbedtls_mpi_shift_l     0x0002c1e7    0x98  Code  Gb  bignum.o [43]
mbedtls_mpi_shift_r     0x0002c27f    0x7a  Code  Gb  bignum.o [43]
mbedtls_mpi_shrink      0x0002bf53    0x54  Code  Gb  bignum.o [43]
mbedtls_mpi_size        0x0002c125     0xc  Code  Gb  bignum.o [43]
mbedtls_mpi_sub_abs     0x0002c4e1    0x8e  Code  Gb  bignum.o [43]
mbedtls_mpi_sub_int     0x0002c5ef    0x12  Code  Gb  bignum.o [43]
mbedtls_mpi_sub_mpi     0x0002c5a3    0x30  Code  Gb  bignum.o [43]
mbedtls_mpi_write_binary
                        0x0002c19f    0x48  Code  Gb  bignum.o [43]
mbedtls_sha224_info     0x00035884    0x30  Data  Gb  md_wrap.o [43]
mbedtls_sha256          0x00032de3    0x36  Code  Gb  sha256.o [43]
mbedtls_sha256_clone    0x00032aff     0x6  Code  Gb  sl_sha256.o [43]
mbedtls_sha256_finish   0x00032c43    0x8c  Code  Gb  sl_sha256.o [43]
mbedtls_sha256_free     0x00032af3     0xc  Code  Gb  sl_sha256.o [43]
mbedtls_sha256_info     0x000358b4    0x30  Data  Gb  md_wrap.o [43]
mbedtls_sha256_init     0x00032aeb     0x8  Code  Gb  sl_sha256.o [43]
mbedtls_sha256_process  0x00032b51    0x80  Code  Gb  sl_sha256.o [43]
mbedtls_sha256_starts   0x00032b05    0x4c  Code  Gb  sl_sha256.o [43]
mbedtls_sha256_update   0x00032bd5    0x6e  Code  Gb  sl_sha256.o [43]
mbedtls_zeroize         0x0002bed1     0xc  Code  Lc  bignum.o [43]
memchr                  0x00025c3d          Code  Gb  memchr.o [44]
mergeNodeIdTlvs         0x000173c7    0xf0  Code  Lc  network-data.o [46]
mergePrefixTlvs         0x00017181    0xf4  Code  Lc  network-data.o [46]
meshHeaderPayload       0x0001dfd5    0x1c  Code  Lc  6lowpan-header.o [46]
meshLocalUlaPrefix      0x200074a8     0x8  Data  Lc  global-prefix.o [46]
messageIdPredicate      0x0000b873    0x14  Code  Lc  coap.o [46]
minTicks                0x20007154     0x4  Data  Lc  ustimer.o [16]
mleAdvertisementEvent   0x20006534     0xc  Data  Lc  rip.o [46]
mleAdvertisementEventActions
                        0x00035124    0x10  Data  Lc  rip.o [46]
mleAdvertisementEventHandler
                        0x0000d2df     0xc  Code  Lc  rip.o [46]
mleChallengeEvent       0x20006574     0xc  Data  Lc  mle.o [46]
mleChallengeEventActions
                        0x00035194    0x10  Data  Lc  mle.o [46]
mleChallengeEventHandler
                        0x0000e89d    0x3c  Code  Lc  mle.o [46]
mleScanChannel          0x2000758d     0x1  Data  Lc  join.o [46]
modeHandler             0x00025831    0x1a  Code  Lc  coap-diagnostic-stack.o [46]
moveToNewLocation       0x00009081    0x6e  Code  Lc  buffer-management.o [46]
mpi_mul_hlp             0x0002c61f   0x208  Code  Lc  bignum.o [43]
mpi_sub_hlp             0x0002c49d    0x44  Code  Lc  bignum.o [43]
mpitobigint             0x0002ee2b    0x3c  Code  Lc  sl_ecp.o [43]
mpuConfig               0x2000631c    0x50  Data  Lc  mpu.o [20]
mruHead                 0x200064d4     0x1  Data  Lc  address-cache.o [46]
mscRfIntDisable         0x20005f71    0x14  Code  Gb  em_msc.o [17]
mscRfIntEnable          0x20005f85    0x10  Code  Gb  em_msc.o [17]
multicastEvent          0x20006508     0xc  Data  Lc  multicast.o [46]
multicastEventActions   0x000350b4    0x10  Data  Lc  multicast.o [46]
multicastEventHandler   0x00010c19    0x6e  Code  Lc  multicast.o [46]
multicastSequence       0x20007f16     0x1  Data  Lc  multicast.o [46]
nChanAportNegSelMap     0x000326d4     0x8  Data  Gb  adc.o [4]
nChanToNegSel           0x000325f1    0x10  Code  Gb  adc.o [4]
nameStrings             0x00020164    0xc0  Data  Lc  diagnostic.o [15]
ndigs                   0x0002e8c8    0x28  Data  Lc  xstoul.o [40]
ndigs                   0x00030f14    0x28  Data  Lc  xstoull.o [40]
needAllNetworkData      0x20007fe1     0x1  Data  Lc  mle.o [46]
networkDataEvent        0x200064f8     0xc  Data  Lc  network-data.o [46]
networkDataEventActions
                        0x00035098    0x10  Data  Lc  network-data.o [46]
networkDataEventHandler
                        0x00016909    0x30  Code  Lc  network-data.o [46]
networkDataHandler      0x00025895    0x10  Code  Lc  coap-diagnostic-stack.o [46]
networkDataNextTlv      0x00016947    0x14  Code  Lc  network-data.o [46]
networkFragmentJoinEvent
                        0x2000660c     0xc  Data  Lc  network-fragmentation.o [46]
networkFragmentJoinEventActions
                        0x000352e4    0x10  Data  Lc  network-fragmentation.o [46]
networkFragmentJoinEventHandler
                        0x00023485    0x16  Code  Lc  network-fragmentation.o [46]
networkId               0x0001ab08    0x10  Data  Lc  client-implementation.o [1]
networkManagementCommissionCommand
                        0x00031c43    0xd4  Code  Gb  network-management-cli.o [28]
networkManagementCommissioningStartCommand
                        0x00031de7    0x10  Code  Gb  network-management-cli.o [28]
networkManagementConfigureGatewayCommand
                        0x00031e85    0x74  Code  Gb  network-management-cli.o [28]
networkManagementFormCommand
                        0x00031ac1    0xae  Code  Gb  network-management-cli.o [28]
networkManagementGetGlobalAddressesCommand
                        0x00031ef9    0x3a  Code  Gb  network-management-cli.o [28]
networkManagementInfoCommand
                        0x000319a1   0x10c  Code  Gb  network-management-cli.o [28]
networkManagementJoinCommand
                        0x00031b6f    0xd4  Code  Gb  network-management-cli.o [28]
networkManagementJoinCommissionedCommand
                        0x00031d21    0x34  Code  Gb  network-management-cli.o [28]
networkManagementListenersCommand
                        0x00031f33     0x2  Code  Gb  network-management-cli.o [28]
networkManagementScanCommand
                        0x00031e2f    0x4e  Code  Gb  network-management-cli.o [28]
networkManagementSetJoinKeyCommand
                        0x00031da1    0x3e  Code  Gb  network-management-cli.o [28]
networkManagementSetJoiningModeCommand
                        0x00031df7    0x16  Code  Gb  network-management-cli.o [28]
networkManagementSetMasterKeyCommand
                        0x00031d55    0x3c  Code  Gb  network-management-cli.o [28]
networkManagementSteeringAddCommand
                        0x00031e1b    0x14  Code  Gb  network-management-cli.o [28]
networkParametersFields
                        0x000114b0    0x2c  Data  Lc  join.o [46]
networkStatus           0x2000748c     0x1  Data  Lc  ip-stack.o [46]
networkUpdateEvent      0x20006464     0xc  Data  Lc  local-server-data.o [46]
networkUpdateEventActions
                        0x00034d48    0x10  Data  Lc  local-server-data.o [46]
networkUpdateEventHandler
                        0x000110e3    0x68  Code  Lc  local-server-data.o [46]
newRipEntry             0x000192f9    0x34  Code  Lc  rip-neighbor.o [46]
nextAttachState         0x0001257d   0x124  Code  Lc  join.o [46]
nextBuffer              0x00008f2d    0x26  Code  Lc  buffer-management.o [46]
nextChannel             0x20007675     0x1  Data  Lc  scan.o [46]
nextDatagramTag         0x20007f20     0x2  Data  Lc  fragment.o [46]
nextFileIndex           0x200067a8     0x4  Data  Lc  tftp-bootloader-server.o [35]
nextId                  0x2000778d     0x1  Data  Lc  rip-neighbor.o [46]
nextIncomingRssiIndex   0x2000767c     0x1  Data  Lc  scan.o [46]
nextJoinState           0x000118a5   0x14a  Code  Lc  join.o [46]
nextMessageId           0x200064d0     0x2  Data  Lc  coap.o [46]
nextOffset              0x20007f22     0x2  Data  Lc  fragment.o [46]
nextOutgoingRssiIndex   0x2000767b     0x1  Data  Lc  scan.o [46]
nextSessionId           0x200074f4     0x2  Data  Lc  commission.o [46]
nextToken               0x200064d2     0x2  Data  Lc  coap.o [46]
nextTransactionId       0x20007fd8     0x1  Data  Lc  dhcp-client.o [39]
nibbleBitCounts         0x0000631c    0x10  Data  Lc  byte-utilities.o [46]
noteMleSender           0x00019dd7    0xfe  Code  Lc  rip-neighbor.o [46]
noteNetworkDataChange   0x00016841    0xc8  Code  Lc  network-data.o [46]
noteUse                 0x00008f67    0x82  Code  Lc  buffer-management.o [46]
nullCallback            0x20007100     0x8  Data  Lc  tempdrv.o [16]
nullEui                 0x00025798     0x8  Data  Lc  mfg-token.o [20]
numberOfRetriesHandler  0x00025989     0x6  Code  Lc  coap-diagnostic-stack.o [46]
officialRandomness      0x0002271c   0x100  Data  Lc  sha256.o [46]
oldChannel              0x20007590     0x1  Data  Lc  join.o [46]
oldKeySequence          0x20007630     0x4  Data  Lc  distributed-key-management.o [46]
oldKeys                 0x20007654    0x20  Data  Lc  distributed-key-management.o [46]
optionIds               0x0001f56c     0xc  Data  Lc  dhcp.o [39]
optionsCache            0x20007592     0x2  Data  Lc  join.o [46]
originalChannel         0x20007679     0x1  Data  Lc  scan.o [46]
originalPanId           0x2000767e     0x2  Data  Lc  scan.o [46]
originalRadioIdleMode   0x2000767a     0x1  Data  Lc  scan.o [46]
ourCookie               0x00021efc     0x8  Data  Lc  tls-handshake.o [46]
p2m                     0x0001bdc4    0x10  Data  Gb  dmadrv.o [16]
pChanAportPosSelMap     0x000326cc     0x8  Data  Gb  adc.o [4]
pChanToPosSel           0x000325e1    0x10  Code  Gb  adc.o [4]
paParams                0x000277bc   0x110  Data  Lc  pa.o [46]
packetsDroppedOnReceiveHandler
                        0x0002593d    0x46  Code  Lc  coap-diagnostic-stack.o [46]
packetsDroppedOnTransmitHandler
                        0x00025937     0x6  Code  Lc  coap-diagnostic-stack.o [46]
packetsReceivedHandler  0x00025931     0x6  Code  Lc  coap-diagnostic-stack.o [46]
packetsSentHandler      0x0002592b     0x6  Code  Lc  coap-diagnostic-stack.o [46]
panIdConflictChannelMask
                        0x2000751c     0x4  Data  Lc  commission.o [46]
panIdConflictHandler    0x00014659     0xa  Code  Lc  commission.o [46]
panIdScanHandler        0x0001455f    0x3a  Code  Lc  commission.o [46]
parametersCache         0x20007534    0x50  Data  Lc  join.o [46]
parentTransmitFailedCounter
                        0x2000744c     0x1  Data  Lc  dispatch.o [46]
parseCommissionMessage  0x00013f15    0x16  Code  Lc  commission.o [46]
parseDuid               0x0001ec6f    0x44  Code  Lc  dhcp.o [39]
parseMleMessage         0x0000f639   0x1de  Code  Lc  mle.o [46]
parseOptions            0x0001efe9   0x232  Code  Lc  dhcp.o [39]
pbkdf2                  0x00022915    0x86  Code  Lc  thread-key-stretch.o [46]
peakDetectorOldSlices   0x20007770     0x4  Data  Lc  pa.o [46]
pendingJoin             0x20007a42     0x2  Data  Lc  mle.o [46]
pendingJoinEvent        0x20006564     0xc  Data  Lc  mle.o [46]
pendingJoinEventActions
                        0x00035184    0x10  Data  Lc  mle.o [46]
pendingJoinEventHandler
                        0x0000d831    0x36  Code  Lc  mle.o [46]
pendingJoinMarker       0x0000d82b     0x6  Code  Lc  mle.o [46]
pendingTimestampCache   0x20007b10     0x8  Data  Lc  commission-dataset.o [46]
pendingToActiveEvent    0x200065b0     0xc  Data  Lc  commission-dataset.o [46]
pendingToActiveEventActions
                        0x0003522c    0x10  Data  Lc  commission-dataset.o [46]
pendingToActiveEventHandler
                        0x00015e6d    0x5e  Code  Lc  commission-dataset.o [46]
petitionHandler         0x0001418b    0xd8  Code  Lc  commission.o [46]
petitionResponseHandler
                        0x000153f1    0x94  Code  Lc  commission.o [46]
phyFreelist             0x20007460     0x8  Data  Lc  buffer-management.o [46]
phyFreelistCount        0x20007454     0x1  Data  Lc  buffer-management.o [46]
phyFreelistQueuedCount  0x20007455     0x1  Data  Lc  buffer-management.o [46]
phyLegacyConfigurationTable
                        0x0002de30    0x3c  Data  Gb  ieee802154_legacyphyconfig.o [46]
phyToMacQueue           0x20007458     0x2  Data  Lc  buffer-management.o [46]
phy_bpsk_20kb_868MHZ_baseConfig
                        0x00035428    0x70  Data  Lc  ieee802154_legacyphyconfig.o [46]
phy_bpsk_20kb_868MHZ_rateDepConfig
                        0x00035498     0xc  Data  Lc  ieee802154_legacyphyconfig.o [46]
phy_bpsk_40kb_915MHZ_baseConfig
                        0x000354a4    0x70  Data  Lc  ieee802154_legacyphyconfig.o [46]
phy_bpsk_40kb_915MHZ_rateDepConfig
                        0x00035514     0xc  Data  Lc  ieee802154_legacyphyconfig.o [46]
phy_oqpsk_dsss_24GHz_baseConfig
                        0x000353ac    0x70  Data  Lc  ieee802154_legacyphyconfig.o [46]
phy_oqpsk_dsss_24GHz_rateDepConfig
                        0x0003541c     0xc  Data  Lc  ieee802154_legacyphyconfig.o [46]
phy_oqpsk_dsss_868MHZ_baseConfig
                        0x00035520    0x70  Data  Lc  ieee802154_legacyphyconfig.o [46]
phy_oqpsk_dsss_868MHZ_rateDepConfig
                        0x00035590     0xc  Data  Lc  ieee802154_legacyphyconfig.o [46]
phy_oqpsk_dsss_915MHZ_baseConfig
                        0x0003559c    0x70  Data  Lc  ieee802154_legacyphyconfig.o [46]
phy_oqpsk_dsss_915MHZ_rateDepConfig
                        0x0003560c     0xc  Data  Lc  ieee802154_legacyphyconfig.o [46]
pollEvent               0x20006458     0xc  Data  Lc  join.o [46]
pollEvent               0x20006588     0xc  Data  Lc  child-aging.o [46]
pollEventActions        0x00034d28    0x10  Data  Lc  join.o [46]
pollEventActions        0x000351b8    0x10  Data  Lc  child-aging.o [46]
pollEventHandler        0x000113c1    0x38  Code  Lc  join.o [46]
pollEventHandler        0x0001d1d1    0x68  Code  Lc  child-aging.o [46]
pollState               0x20007f30     0x1  Data  Lc  mac-arbiter.o [46]
polys                   0x00013b58     0x4  Data  Lc  commission.o [46]
portMasks               0x20007480     0xc  Data  Lc  log.o [46]
power0dBmParams         0x000278cc    0x10  Data  Lc  pa.o [46]
powers10                0x00005088    0x24  Data  Lc  ember-printf.o [31]
pows                    0x00004598    0x48  Data  Lc  xdtento.o [42]
preamDetCount           0x20007c20     0x4  Data  Lc  ieee802154_phy.o [46]
preamLostCount          0x20007c1c     0x4  Data  Lc  ieee802154_phy.o [46]
precommissioned         0x2000758b     0x1  Data  Lc  join.o [46]
preferredCryptoSuite    0x0002110f    0x4a  Code  Lc  tls-handshake.o [46]
prefixAgingEvent        0x2000663c     0xc  Data  Lc  dhcp.o [39]
prefixAgingEventActions
                        0x00035344    0x10  Data  Lc  dhcp.o [39]
prefixAgingEventHandler
                        0x0001f419    0xfe  Code  Lc  dhcp.o [39]
previousHandle          0x20007f12     0x1  Data  Lc  udp.o [46]
prfHash                 0x0002d645    0xbe  Code  Lc  tls-handshake-crypto.o [46]
printBuffer             0x00004cdd    0x4e  Code  Lc  debug-print.o [13]
printCommandUsage       0x0002f615    0x78  Code  Lc  command-interpreter2-error.o [12]
printPacket             0x00028121    0x3a  Code  Gb  B2Bprotocol.o [2]
printVarArg             0x00004c97    0x26  Code  Lc  debug-print.o [13]
printableNetworkId      0x0001a643    0x24  Code  Lc  client-implementation.o [1]
priorityTransmitQueue   0x20007f34     0x2  Data  Lc  mac-arbiter.o [46]
processAddressSolicitAck
                        0x000239ed    0x50  Code  Lc  address-management.o [46]
processCertificateRequest
                        0x00021a71    0x22  Code  Lc  tls-handshake.o [46]
processChangeResponse   0x000110ad    0x12  Code  Lc  local-server-data.o [46]
processClientHello      0x00021581   0x13e  Code  Lc  tls-handshake.o [46]
processClientKeyExchange
                        0x00021bf5    0x4c  Code  Lc  tls-handshake.o [46]
processClosingData      0x00021c8f     0x4  Code  Lc  tls-handshake.o [46]
processFinished         0x00021c41    0x4e  Code  Lc  tls-handshake.o [46]
processForMe            0x0001874f    0xe6  Code  Lc  dispatch.o [46]
processForUart          0x000182f1    0xb0  Code  Lc  dispatch.o [46]
processHelloDone        0x00021a93    0x1c  Code  Lc  tls-handshake.o [46]
processHelloRequest     0x0002126b     0xa  Code  Lc  tls-handshake.o [46]
processIcmpMessage      0x0001886f    0xf0  Code  Lc  dispatch.o [46]
processIpMessage        0x00018415    0x4e  Code  Lc  dispatch.o [46]
processJpakeHello       0x00021537    0x4a  Code  Lc  tls-handshake.o [46]
processRecord           0x00021c97    0xf4  Code  Lc  tls-handshake.o [46]
processServerDataAck    0x0001a3dd    0x44  Code  Lc  client-implementation.o [1]
processServerHello      0x00021937   0x128  Code  Lc  tls-handshake.o [46]
processServerKeyExchange
                        0x00021a5f    0x12  Code  Lc  tls-handshake.o [46]
pskClientHelloTail      0x00021eb8     0x2  Data  Lc  tls-handshake.o [46]
pskSuiteIdentifier      0x000358ec     0x2  Data  Gb  tls-ccm-record.o [46]
ptaEnabled              0x20006ce0     0x1  Data  Lc  micro.o [20]
ptaUpdateReqIsr         0x0001ad23    0x4a  Code  Lc  micro.o [20]
ptiEnabled              0x20006494     0x1  Data  Lc  phy-common.o [46]
ptrCache                0x2000699c    0x20  Data  Gb  sim-eeprom.o [32]
ptrCacheLoc             0x00025f3b    0x24  Code  Lc  sim-eeprom-internal.o [45]
pumpRx                  0x000059e7    0x80  Code  Gb  com.o [31]
purgeNextHop            0x000193f5    0x42  Code  Gb  rip-neighbor.o [46]
putBytes                0x00008bad    0x46  Code  Lc  debug.o [46]
radioCheckCrc           0x2000649e     0x1  Data  Gb  phy-common.o [46]
radioCurrentPowerStatus
                        0x20006496     0x1  Data  Gb  phy-common.o [46]
radioIdlePowerState     0x20006495     0x1  Data  Lc  phy-common.o [46]
radioTransmitConfig     0x200063fc     0x8  Data  Gb  ip-stack.o [46]
rand                    0x0003091d    0xe0  Code  Gb  rand.o [40]
rand_bytes              0x0000c651    0x48  Code  Lc  jpake-ecc-mbedtls.o [43]
readCounterValue        0x000267bf    0x34  Code  Lc  sim-eeprom-internal.o [45]
readHumidity            0x00020225    0x52  Code  Gb  sensor_control.o [30]
readString              0x0002855d    0x1a  Code  Lc  tftp-server.o [35]
readTemperature         0x00020285    0x74  Code  Gb  sensor_control.o [30]
readTokenData           0x00025eb9    0x42  Code  Lc  sim-eeprom-internal.o [45]
readUdpPort             0x0001da37    0x20  Code  Lc  6lowpan-header.o [46]
reallyProcessIpMessage  0x00018463   0x2d6  Code  Lc  dispatch.o [46]
recalculateMacDataPendingBitField
                        0x0000a345    0x24  Code  Lc  mac-indirect.o [46]
reenqueueSubmitHead     0x0000a5b9    0x60  Code  Lc  retry.o [46]
regBases                0x000253fc     0x8  Data  Lc  radio.o [46]
registrationEvent       0x20006410     0xc  Data  Lc  global-prefix.o [46]
registrationEventActions
                        0x00034c88    0x10  Data  Lc  global-prefix.o [46]
registrationEventHandler
                        0x00006f43    0x30  Code  Lc  global-prefix.o [46]
relayRxHandler          0x0001466d    0x7a  Code  Lc  commission.o [46]
relayTxHandler          0x000146f9    0xc2  Code  Lc  commission.o [46]
releaseId               0x20007fe8     0x1  Data  Lc  router-selection.o [46]
reloadUartBuffer        0x00005ae1    0x78  Code  Lc  com.o [31]
remainingRejoinAttempts
                        0x2000758a     0x1  Data  Lc  join.o [46]
remainingScanAttempts   0x20007588     0x1  Data  Lc  join.o [46]
removeHopByHopExtensionHeader
                        0x00018e6b    0x46  Code  Lc  dispatch.o [46]
reportCommand           0x0001a515     0xe  Code  Gb  client-implementation.o [1]
reportDataToServer      0x0001a431    0xde  Code  Lc  client-implementation.o [1]
reportRouteChanges      0x0001751d    0x9c  Code  Lc  network-data.o [46]
rescheduleRtc           0x000298fb    0x6c  Code  Lc  rtcdriver.o [16]
resendFlight            0x0001e7d1    0x24  Code  Lc  dtls.o [46]
resetCauseMasks         0x000269d8    0x48  Data  Lc  em_rmu.o [17]
resetNetworkRetries     0x200074a4     0x4  Data  Lc  ip-stack.o [46]
resetNetworkStateEvent  0x20006404     0xc  Data  Lc  ip-stack.o [46]
resetNetworkStateEventActions
                        0x00034c68    0x10  Data  Lc  ip-stack.o [46]
resetNetworkStateEventHandler
                        0x00006bf9    0x4a  Code  Lc  ip-stack.o [46]
resetNumberOfRetriesHandler
                        0x000259e9     0x2  Code  Lc  coap-diagnostic-stack.o [46]
resetPacketsDroppedOnReceiveHandler
                        0x000259e5     0x2  Code  Lc  coap-diagnostic-stack.o [46]
resetPacketsDroppedOnTransmitHandler
                        0x000259e3     0x2  Code  Lc  coap-diagnostic-stack.o [46]
resetPacketsReceivedHandler
                        0x000259e1     0x2  Code  Lc  coap-diagnostic-stack.o [46]
resetPacketsSentHandler
                        0x000259df     0x2  Code  Lc  coap-diagnostic-stack.o [46]
resetSecurityErrorsHandler
                        0x000259e7     0x2  Code  Lc  coap-diagnostic-stack.o [46]
responseHandler         0x00032405    0x7e  Code  Lc  coap-cli.o [10]
restartAttach           0x000123ff    0x62  Code  Lc  join.o [46]
restoreSleepyNodeType   0x0001165b    0x1c  Code  Lc  join.o [46]
retryDelayMs            0x0001ecb3    0x12  Code  Lc  dhcp.o [39]
retryEntries            0x20007a60    0x40  Data  Lc  retry.o [46]
retryEvent              0x200065a0     0xc  Data  Lc  retry.o [46]
retryEventActions       0x000351e0    0x10  Data  Lc  retry.o [46]
retryEventActions       0x0001f55c    0x10  Data  Lc  dhcp.o [39]
retryEventHandler       0x0000a619    0x84  Code  Lc  retry.o [46]
retryEventHandler       0x0001ed9b    0x42  Code  Lc  dhcp.o [39]
retryEventMarker        0x0001eddd     0x6  Code  Lc  dhcp.o [39]
retryEventPredicate     0x0001f873    0x26  Code  Lc  coap-stack.o [46]
retryEventPredicate     0x0001ecc5    0x10  Code  Lc  dhcp.o [39]
reverseMemCopy          0x0000fd61    0x1a  Code  Lc  802-15-4-ccm.o [46]
rhoActive               0x20007fd6     0x1  Data  Lc  phy.o [46]
ripAgeEvent             0x20006540     0xc  Data  Lc  rip.o [46]
ripAgeEventActions      0x00035134    0x10  Data  Lc  rip.o [46]
ripAgeEventHandler      0x0000d2eb    0x96  Code  Lc  rip.o [46]
ripUpdateNextHop        0x00018eb1   0x20a  Code  Lc  dispatch.o [46]
routerSelectionEvent    0x2000662c     0xc  Data  Lc  router-selection.o [46]
routerSelectionEventActions
                        0x00035318    0x10  Data  Lc  router-selection.o [46]
routerSelectionEventHandler
                        0x00023f85   0x14e  Code  Lc  router-selection.o [46]
routingTableHandler     0x00025877    0x10  Code  Lc  coap-diagnostic-stack.o [46]
rtcRunning              0x2000638d     0x1  Data  Lc  rtcdriver.o [16]
rtcdrvIsInitialized     0x2000638e     0x1  Data  Lc  rtcdriver.o [16]
rxCb                    0x20006ce8     0x4  Data  Lc  micro.o [20]
rxIntDisable            0x000057f7    0x12  Code  Lc  com.o [31]
rxNextBuffer            0x00005a9b    0x42  Code  Lc  com.o [31]
rxReq                   0x20006ce2     0x1  Data  Lc  micro.o [20]
rxWarmTimeUs            0x20007fbc     0x2  Data  Lc  radio.o [46]
savedAssertInfo         0x20006cd4     0x8  Data  Lc  cstartup-common.o [20]
savedResetCause         0x20006cdc     0x2  Data  Lc  cstartup-common.o [20]
savedScanType           0x20007676     0x1  Data  Lc  scan.o [46]
scanChannelMask         0x20007690     0x4  Data  Lc  scan.o [46]
scanDuration            0x20007677     0x1  Data  Lc  scan.o [46]
scanEventActions        0x00034d80    0x10  Data  Lc  scan.o [46]
scanEventHandler        0x0001ca2f   0x122  Code  Lc  scan.o [46]
scanFrameCounter        0x20007684     0x4  Data  Lc  scan.o [46]
scanResultDestination   0x20007524    0x10  Data  Lc  commission.o [46]
scanReturn              0x0001ca01    0x2e  Code  Lc  scan.o [46]
scanStartTime           0x20007688     0x4  Data  Lc  scan.o [46]
scanTransmitRetries     0x20007678     0x1  Data  Lc  scan.o [46]
scheduleEvent           0x0001d261    0x50  Code  Lc  child-aging.o [46]
scheduleKeyRotation     0x0000fc3b    0x2c  Code  Lc  distributed-key-management.o [46]
secp256r1_b             0x0002d4d0    0x20  Data  Lc  ecp_curves.o [43]
secp256r1_gx            0x0002d4f0    0x20  Data  Lc  ecp_curves.o [43]
secp256r1_gy            0x0002d510    0x20  Data  Lc  ecp_curves.o [43]
secp256r1_n             0x0002d530    0x20  Data  Lc  ecp_curves.o [43]
secp256r1_p             0x0002d4b0    0x20  Data  Lc  ecp_curves.o [43]
securityErrorsHandler   0x00025983     0x6  Code  Lc  coap-diagnostic-stack.o [46]
seed0                   0x2000636c     0x2  Data  Gb  random.o [20]
seed1                   0x2000636e     0x2  Data  Gb  random.o [20]
sendAccept              0x0000e73b   0x148  Code  Lc  mle.o [46]
sendChangeCipherSpec    0x00021b89    0x24  Code  Lc  tls-handshake.o [46]
sendClientHelloHandler  0x00021275   0x16c  Code  Lc  tls-handshake.o [46]
sendClientKeyExchange   0x00021aaf    0xb8  Code  Lc  tls-handshake.o [46]
sendCommissionerStatus  0x00013d67    0xe0  Code  Lc  commission.o [46]
sendDhcpSolicit         0x00029bbd    0xde  Code  Lc  dhcp-client.o [39]
sendDtlsRecords         0x0001e6df    0x50  Code  Lc  dtls.o [46]
sendFinished            0x00021bad    0x42  Code  Lc  tls-handshake.o [46]
sendHelloRequest        0x00021253    0x18  Code  Lc  tls-handshake.o [46]
sendKeepalive           0x000153af    0x36  Code  Lc  commission.o [46]
sendManagementDataset   0x00016031    0x60  Code  Lc  commission-dataset.o [46]
sendManagementDatasetChanged
                        0x00016095    0x2c  Code  Lc  commission-dataset.o [46]
sendNextMleDiscovery    0x0001184d    0x4c  Code  Lc  join.o [46]
sendOkayToSend          0x0002885b    0x3a  Code  Lc  tftp-bootloader-server.o [35]
sendOneHopMleMessage    0x0000e9a9    0x26  Code  Lc  mle.o [46]
sendRecord              0x0002a1c9   0x10e  Code  Lc  tls-ccm-record.o [46]
sendResponse            0x0000bf77    0x60  Code  Lc  coap.o [46]
sendServerHello         0x000217af   0x136  Code  Lc  tls-handshake.o [46]
sendServerHelloDone     0x00021909    0x24  Code  Lc  tls-handshake.o [46]
sendServerKeyExchange   0x000218fb     0xe  Code  Lc  tls-handshake.o [46]
sendSetResponse         0x000159c5    0x34  Code  Lc  commission-dataset.o [46]
sendSimpleOneHopMleMessage
                        0x0000e9cf    0x22  Code  Lc  mle.o [46]
sendToLeaderWithHandlerData
                        0x00014af1    0x5e  Code  Lc  commission.o [46]
seqMisc                 0x21000f6c    0x18  Data  Gb  radio.o [46]
seqNo                   0x200076d4     0x4  Data  Gb  phy-common.o [46]
seqPaConfig             0x21000fc0     0xc  Data  Gb  radio.o [46]
seqStack                0x21000fcc    0x28  Data  Gb  radio.o [46]
seqTimestamps           0x21000f84    0x18  Data  Gb  radio.o [46]
seqTiming               0x21000f9c    0x24  Data  Gb  radio.o [46]
seqVirtualReg           0x21000ff4     0xc  Data  Gb  radio.o [46]
sequenceNumber          0x20007fd0     0x1  Data  Lc  debug-jtag.o [46]
server                  0x2000741c    0x10  Data  Lc  client-implementation.o [1]
serverAdvertiseHandler  0x0001a323    0x32  Code  Gb  client-implementation.o [1]
serverDataHandler       0x0002391d    0x46  Code  Lc  address-management.o [46]
servicesState           0x20007f0c     0x1  Data  Lc  local-server-data.o [46]
setActiveDataset        0x00015da1    0x92  Code  Lc  commission-dataset.o [46]
setCustomMacExtendedId  0x000112a9    0x24  Code  Lc  join.o [46]
setDatasetTlvs          0x00016437    0xd2  Code  Lc  commission-dataset.o [46]
setDestinationMode      0x0001ce8b    0x20  Code  Lc  ip-packet-header.o [46]
setHfLeConfig           0x0001b27b    0x20  Code  Lc  em_cmu.o [17]
setLifetime             0x0001f381    0x6e  Code  Lc  dhcp.o [39]
setMleAdvertisementDelay
                        0x0000d229    0x4e  Code  Lc  rip.o [46]
setNextStateWithDelay   0x0001a639     0xa  Code  Lc  client-implementation.o [1]
setPendingDataset       0x00015e39    0x28  Code  Lc  commission-dataset.o [46]
setPendingIndirectFlag  0x00009f5f    0x4c  Code  Lc  mac-indirect.o [46]
setPendingToActiveEvent
                        0x0001578b     0xa  Code  Lc  commission-dataset.o [46]
setUnreachabilityTimer  0x0000d293    0x14  Code  Lc  rip.o [46]
sha224_clone_wrap       0x00032dcf     0x4  Code  Lc  md_wrap.o [43]
sha224_ctx_alloc        0x00032da7    0x16  Code  Lc  md_wrap.o [43]
sha224_ctx_free         0x00032dbd    0x12  Code  Lc  md_wrap.o [43]
sha224_finish_wrap      0x00032d9d     0x4  Code  Lc  md_wrap.o [43]
sha224_process_wrap     0x00032dd3     0x4  Code  Lc  md_wrap.o [43]
sha224_starts_wrap      0x00032d93     0x6  Code  Lc  md_wrap.o [43]
sha224_update_wrap      0x00032d99     0x4  Code  Lc  md_wrap.o [43]
sha224_wrap             0x00032da1     0x6  Code  Lc  md_wrap.o [43]
sha256_padding          0x00032d30    0x40  Data  Lc  sl_sha256.o [43]
sha256_starts_wrap      0x00032dd7     0x6  Code  Lc  md_wrap.o [43]
sha256_wrap             0x00032ddd     0x6  Code  Lc  md_wrap.o [43]
sharedKey               0x0003538c    0x10  Data  Gb  tls-test-credentials.o [46]
sharedKeyName           0x00035388     0x1  Data  Gb  tls-test-credentials.o [46]
shift                   0x0001cd31    0x10  Code  Lc  random.o [20]
si7021Init              0x0002a78f    0x6c  Code  Gb  humidity-temperature-si7021.o [3]
si7021StartRead         0x0002a7fb    0x10  Code  Gb  humidity-temperature-si7021.o [3]
simEe2offset            0x200074bc     0x4  Data  Gb  sim-eeprom-internal.o [45]
simEeErasePage          0x00025f03    0x16  Code  Lc  sim-eeprom-internal.o [45]
simEeSetDataActiveSemaphore
                        0x20007fc4     0x1  Data  Gb  token.o [20]
simulatedEepromStorage  0x0003e000  0x2000  Data  Gb  sim-eeprom.o [32]
sizeCache               0x00033da0    0x10  Data  Gb  sim-eeprom.o [32]
skipOverNotLive         0x000090ef    0x16  Code  Lc  buffer-management.o [46]
sleepTimerInterruptOccurred
                        0x200074d4     0x1  Data  Lc  system-timer.o [41]
sleepyBroadcastEvent    0x20006524     0xc  Data  Lc  jit.o [46]
sleepyBroadcastEventActions
                        0x000350f4    0x10  Data  Lc  jit.o [46]
sleepyBroadcastEventHandler
                        0x0001c3f7    0x18  Code  Lc  jit.o [46]
sniffBaudHz             0x20007778     0x4  Data  Lc  pti.o [46]
sniffMode               0x20007774     0x4  Data  Lc  pti.o [46]
sortTlvs                0x00016f83    0x64  Code  Lc  network-data.o [46]
sourceAddressHandler    0x00025801    0x20  Code  Lc  coap-diagnostic-stack.o [46]
splitPacket             0x000280c1    0x60  Code  Gb  B2Bprotocol.o [2]
sprintf                 0x0002e55d    0x34  Code  Gb  sprintf.o [40]
sscanf                  0x0002e591    0x24  Code  Gb  sscanf.o [40]
stackCoapMessageHandler
                        0x0001f8cd     0x4  Code  Lc  coap-stack.o [46]
stackEvents             0x00006ec0     0x8  Data  Lc  ip-stack.o [46]
stackIsInitialized      0x20006cad     0x1  Data  Lc  main.o [27]
startAttach             0x00012369    0x96  Code  Lc  join.o [46]
startChannelScan        0x0001cbfd    0x82  Code  Lc  scan.o [46]
startDiscovery          0x00013899    0x5a  Code  Lc  address-cache.o [46]
startFormActiveScan     0x0001217d    0x38  Code  Lc  join.o [46]
startFragmentIfJoinFails
                        0x2000758c     0x1  Data  Lc  join.o [46]
startHostJoinClient     0x200075a0     0x4  Data  Lc  join.o [46]
startJoin               0x00011677    0x4e  Code  Lc  join.o [46]
startMessage            0x00008b97    0x14  Code  Lc  debug.o [46]
startMessageTimeout     0x0001e6a9    0x36  Code  Gb  dtls.o [46]
startReadBeforeInitialization
                        0x20007fc2     0x1  Data  Lc  sensor_control.o [30]
startReadBeforeInitialization
                        0x20007209     0x1  Data  Lc  humidity-temperature-si7021.o [3]
startTimerNestingLevel  0x20006394     0x4  Data  Lc  rtcdriver.o [16]
state                   0x20007411     0x1  Data  Lc  client-implementation.o [1]
stateActions            0x00021f04   0x168  Data  Lc  tls-handshake.o [46]
stateEventControl       0x20007414     0x8  Data  Gb  client-implementation.o [1]
stateEventHandler       0x0001a5bd    0x74  Code  Gb  client-implementation.o [1]
statsTable              0x200074c0     0xc  Data  Lc  debug.o [46]
statusMap               0x0000ba68    0x20  Data  Lc  coap.o [46]
statusReports           0x0001e6a0     0x8  Data  Lc  connection.o [46]
steeringData            0x200074e4    0x10  Data  Lc  commission.o [46]
steeringDataLength      0x200074dc     0x1  Data  Lc  commission.o [46]
steeringDataOp          0x00013aa5    0xb2  Code  Lc  commission.o [46]
storeChildAddresses     0x0000daef    0x16  Code  Lc  mle.o [46]
storeCoapOption         0x0000baaf    0x8c  Code  Lc  coap.o [46]
storeCounter            0x0002590b    0x14  Code  Lc  coap-diagnostic-stack.o [46]
storeMulticastOption    0x00026b53    0x38  Code  Lc  ip-header.o [46]
strchr                  0x00030cd1          Code  Gb  strchr.o [44]
stringToBytes           0x000054cb   0x1b4  Code  Lc  ip-address.o [46]
strlen                  0x000257a1          Code  Gb  strlen.o [44]
strncmp                 0x000257d7    0x2a  Code  Gb  strncmp.o [40]
strnlen                 0x0000743b    0x16  Code  Gb  strnlen.o [40]
sub32                   0x0002d1c5    0x18  Code  Lc  ecp_curves.o [43]
submitCount             0x20007aa1     0x1  Data  Lc  retry.o [46]
submitMessage           0x0001f579    0x5c  Code  Lc  coap-stack.o [46]
successTlv              0x000148a0     0x4  Data  Lc  commission.o [46]
swoOutput               0x0000874b    0xa8  Code  Lc  debug-jtag.o [46]
syncForMulticast        0x000198a1    0xb6  Code  Lc  rip-neighbor.o [46]
syncReg                 0x0001b35d    0x12  Code  Lc  em_cmu.o [17]
systemTimerId           0x200074d8     0x4  Data  Lc  system-timer.o [41]
tempdrvHighCallbacks    0x200070c0    0x30  Data  Lc  tempdrv.o [16]
tempdrvLowCallbacks     0x20007108    0x30  Data  Lc  tempdrv.o [16]
theAttachData           0x200075cc    0x3c  Data  Lc  join.o [46]
theJoinScanCache        0x20007584     0x4  Data  Lc  join.o [46]
theSharedKey            0x0003539c    0x10  Data  Lc  tls-test-credentials.o [46]
threadKeys              0x20007634    0x20  Data  Lc  distributed-key-management.o [46]
timeElapsed             0x2000714c     0x1  Data  Lc  ustimer.o [16]
timeoutHandler          0x0002584b    0x12  Code  Lc  coap-diagnostic-stack.o [46]
timeoutPools            0x0000a373    0xb2  Code  Lc  mac-indirect.o [46]
timer                   0x200066f8    0xa0  Data  Lc  rtcdriver.o [16]
tlvBit                  0x0000d86d    0x14  Code  Lc  mle.o [46]
tlvData                 0x000139bc    0xe8  Data  Lc  commission.o [46]
tlvData                 0x00015860    0xa0  Data  Lc  commission-dataset.o [46]
tlvData                 0x00023be0    0x58  Data  Lc  address-management.o [46]
tlvMap                  0x00015d64    0x3c  Data  Gb  commission-dataset.o [46]
tlvRanges               0x000139b4     0x8  Data  Lc  commission.o [46]
tlvRequested            0x0000d897    0x16  Code  Lc  mle.o [46]
tokenArraySize          0x00033f10    0x10  Data  Gb  token-def.o [20]
tokenCreators           0x00033ed4    0x1c  Data  Gb  token-def.o [20]
tokenData               0x00016548    0x48  Data  Lc  commission-dataset.o [46]
tokenDefaults           0x00034214    0x34  Data  Gb  token-def.o [20]
tokenIsCnt              0x00033ef0    0x10  Data  Gb  token-def.o [20]
tokenPredicate          0x0000b887    0x14  Code  Lc  coap.o [46]
tokenSize               0x00033f00    0x10  Data  Gb  token-def.o [20]
tokensActive            0x20007fc3     0x1  Data  Gb  token.o [20]
tracePhase              0x20007456     0x1  Data  Lc  buffer-management.o [46]
transmitBuffer          0x00005c4f    0x64  Code  Lc  com.o [31]
transmitCatchUp         0x00005bc5    0x82  Code  Lc  com.o [31]
transmitComplete        0x00018bd1    0xc6  Code  Lc  dispatch.o [46]
transmitQueue           0x20007f36     0x2  Data  Lc  mac-arbiter.o [46]
trickleExponent         0x20006530     0x1  Data  Lc  rip.o [46]
twoWayQualityFromCache  0x000122f9    0x24  Code  Lc  join.o [46]
txBuffer                0x200074d0     0x4  Data  Lc  debug.o [46]
txBufferLength          0x200074cd     0x1  Data  Lc  debug.o [46]
txBufferSize            0x200074cc     0x1  Data  Lc  debug.o [46]
txCb                    0x20006ce4     0x4  Data  Lc  micro.o [20]
txHeaderLength          0x0002a143    0x16  Code  Lc  tls-ccm-record.o [46]
txReq                   0x20006ce1     0x1  Data  Lc  micro.o [20]
txState                 0x20007698     0x1  Data  Gb  phy-common.o [46]
typeAndPortEnabled      0x0002a609    0x10  Code  Lc  log.o [46]
uartdrvHandle           0x2000713c    0x10  Data  Lc  uartdrv.o [16]
uartdrvHandleIsInitialized
                        0x20007138     0x1  Data  Lc  uartdrv.o [16]
uarthandle              0x200062f8     0xc  Data  Gb  com.o [31]
uarthandledata          0x20006b9c    0x9c  Data  Lc  com.o [31]
udpListenCommand        0x00031899    0x34  Code  Gb  udp-cli.o [36]
udpSendCommand          0x000318cd    0x52  Code  Gb  udp-cli.o [36]
udpStatusHandler        0x0000c7fb    0x38  Code  Lc  dtls-join.o [46]
unicastHead             0x20007b58     0x1  Data  Lc  unicast-table.o [46]
unicastTableEvent       0x200065d4     0xc  Data  Lc  unicast-table.o [46]
unicastTableEventActions
                        0x00035274    0x10  Data  Lc  unicast-table.o [46]
unicastTableEventHandler
                        0x0001023d    0x1e  Code  Lc  unicast-table.o [46]
uninitializedIsr        0x00032241          Code  Gb  faults-v7m.o [20]
unloadTxBuffer          0x00005b8d    0x2c  Code  Lc  com.o [31]
updateBuffer            0x00005a67    0x34  Code  Gb  com.o [31]
updateCommissioningDatasets
                        0x0000d8ad    0xa0  Code  Lc  mle.o [46]
updateInterrupts        0x00027eab    0xa2  Code  Lc  tempdrv.o [16]
updateMacFrameCounter   0x0000f833    0x4a  Code  Lc  mle.o [46]
updateNetworkData       0x0000d94d     0xa  Code  Lc  mle.o [46]
uriEquals               0x000259eb    0x32  Code  Lc  coap-diagnostic-stack.o [46]
uriHandlers             0x000149e0    0x9c  Data  Lc  commission.o [46]
uriHandlers             0x00016590    0x48  Data  Lc  commission-dataset.o [46]
uriHandlers             0x00023c38    0x54  Data  Lc  address-management.o [46]
use1MHzClock            0x200071f8     0x1  Data  Lc  adc.o [4]
userData                0x20007474     0x4  Data  Lc  buffer-management.o [46]
userDataCount           0x2000745c     0x2  Data  Lc  buffer-management.o [46]
vcoGainPte              0x20007ee8     0x1  Data  Gb  synth.o [46]
verifyAppBlVersion      0x0002e8f1    0x26  Code  Lc  bootloader-interface-app.o [18]
versionTypeNames        0x00004c60    0x18  Data  Lc  version-debug.o [37]
voltageHandler          0x0002598f     0x6  Code  Lc  coap-diagnostic-stack.o [46]
wakeInfo                0x20006cec     0x4  Data  Lc  sleep-efm32.o [20]
wallClockOverflowCnt    0x20006398     0x4  Data  Lc  rtcdriver.o [16]
wallClockTimeBase       0x2000639c     0x4  Data  Lc  rtcdriver.o [16]
write16                 0x0002e191    0x4c  Code  Gb  flash.o [41]
writeHelloStart         0x000211eb    0x48  Code  Lc  tls-handshake.o [46]
writePageCounters       0x00026571    0x78  Code  Lc  sim-eeprom-internal.o [45]
writeSessionId          0x00021233    0x20  Code  Lc  tls-handshake.o [46]
writeTlsRecordHeader    0x0002a105    0x3e  Code  Lc  tls-ccm-record.o [46]
writeTokenBlockData     0x00025e65    0x54  Code  Lc  sim-eeprom-internal.o [45]
wrongMessage            0x00021c93     0x4  Code  Lc  tls-handshake.o [46]
xor16                   0x0002281d    0x14  Code  Lc  thread-key-stretch.o [46]


[1] = C:\Users\subh6068\SimplicityStudio\v4_workspace\client\IAR ARM - Default
[2] = C:\Users\subh6068\SimplicityStudio\v4_workspace\client\IAR ARM - Default\B2Bprotocol
[3] = C:\Users\subh6068\SimplicityStudio\v4_workspace\client\IAR ARM - Default\Si7021\EFR32
[4] = C:\Users\subh6068\SimplicityStudio\v4_workspace\client\IAR ARM - Default\adc\EFR32
[5] = C:\Users\subh6068\SimplicityStudio\v4_workspace\client\IAR ARM - Default\address-configuration-debug
[6] = C:\Users\subh6068\SimplicityStudio\v4_workspace\client\IAR ARM - Default\antenna-stub
[7] = C:\Users\subh6068\SimplicityStudio\v4_workspace\client\IAR ARM - Default\button\EFR32
[8] = C:\Users\subh6068\SimplicityStudio\v4_workspace\client\IAR ARM - Default\buzzer\EFR32
[9] = C:\Users\subh6068\SimplicityStudio\v4_workspace\client\IAR ARM - Default\cli
[10] = C:\Users\subh6068\SimplicityStudio\v4_workspace\client\IAR ARM - Default\coap-cli
[11] = C:\Users\subh6068\SimplicityStudio\v4_workspace\client\IAR ARM - Default\coap-dispatch
[12] = C:\Users\subh6068\SimplicityStudio\v4_workspace\client\IAR ARM - Default\command-interpreter2
[13] = C:\Users\subh6068\SimplicityStudio\v4_workspace\client\IAR ARM - Default\debug-print
[14] = C:\Users\subh6068\SimplicityStudio\v4_workspace\client\IAR ARM - Default\dhcp-client
[15] = C:\Users\subh6068\SimplicityStudio\v4_workspace\client\IAR ARM - Default\diagnostic\EFR32
[16] = C:\Users\subh6068\SimplicityStudio\v4_workspace\client\IAR ARM - Default\emdrv
[17] = C:\Users\subh6068\SimplicityStudio\v4_workspace\client\IAR ARM - Default\emlib
[18] = C:\Users\subh6068\SimplicityStudio\v4_workspace\client\IAR ARM - Default\external-generated-files
[19] = C:\Users\subh6068\SimplicityStudio\v4_workspace\client\IAR ARM - Default\global-address-prefix-debug
[20] = C:\Users\subh6068\SimplicityStudio\v4_workspace\client\IAR ARM - Default\hal-library\EFR32
[21] = C:\Users\subh6068\SimplicityStudio\v4_workspace\client\IAR ARM - Default\heartbeat
[22] = C:\Users\subh6068\SimplicityStudio\v4_workspace\client\IAR ARM - Default\i2c-driver\EFR32
[23] = C:\Users\subh6068\SimplicityStudio\v4_workspace\client\IAR ARM - Default\icmp-cli
[24] = C:\Users\subh6068\SimplicityStudio\v4_workspace\client\IAR ARM - Default\icmp-debug
[25] = C:\Users\subh6068\SimplicityStudio\v4_workspace\client\IAR ARM - Default\idle-sleep
[26] = C:\Users\subh6068\SimplicityStudio\v4_workspace\client\IAR ARM - Default\led\EFR32
[27] = C:\Users\subh6068\SimplicityStudio\v4_workspace\client\IAR ARM - Default\main
[28] = C:\Users\subh6068\SimplicityStudio\v4_workspace\client\IAR ARM - Default\network-management-cli
[29] = C:\Users\subh6068\SimplicityStudio\v4_workspace\client\IAR ARM - Default\scan-debug
[30] = C:\Users\subh6068\SimplicityStudio\v4_workspace\client\IAR ARM - Default\sensor-control
[31] = C:\Users\subh6068\SimplicityStudio\v4_workspace\client\IAR ARM - Default\serial\EFR32
[32] = C:\Users\subh6068\SimplicityStudio\v4_workspace\client\IAR ARM - Default\sim-eeprom1\EFR32
[33] = C:\Users\subh6068\SimplicityStudio\v4_workspace\client\IAR ARM - Default\slaac-client
[34] = C:\Users\subh6068\SimplicityStudio\v4_workspace\client\IAR ARM - Default\stack\thread-stack
[35] = C:\Users\subh6068\SimplicityStudio\v4_workspace\client\IAR ARM - Default\tftp-bootload-target
[36] = C:\Users\subh6068\SimplicityStudio\v4_workspace\client\IAR ARM - Default\udp-cli
[37] = C:\Users\subh6068\SimplicityStudio\v4_workspace\client\IAR ARM - Default\version-debug
[38] = command line
[39] = dhcp-library.a
[40] = dl7M_tln.a
[41] = hal-library.a
[42] = m7M_tlv.a
[43] = mbedtls-library.a
[44] = rt7M_tl.a
[45] = sim-eeprom1-library.a
[46] = thread-stack.a

  191 032 bytes of readonly  code memory
      512 bytes of readwrite code memory
   13 300 bytes of readonly  data memory
   25 927 bytes of readwrite data memory (+ 148 absolute)

Errors: none
Warnings: none
